   1              		.cpu cortex-m0
   2              		.fpu softvfp
   3              		.eabi_attribute 20, 1
   4              		.eabi_attribute 21, 1
   5              		.eabi_attribute 23, 3
   6              		.eabi_attribute 24, 1
   7              		.eabi_attribute 25, 1
   8              		.eabi_attribute 26, 1
   9              		.eabi_attribute 30, 2
  10              		.eabi_attribute 34, 0
  11              		.eabi_attribute 18, 4
  12              		.code	16
  13              		.file	"LEDR.c"
  14              		.text
  15              	.Ltext0:
  16              		.cfi_sections	.debug_frame
  17              		.section	.text.LEDR_Init,"ax",%progbits
  18              		.align	2
  19              		.global	LEDR_Init
  20              		.code	16
  21              		.thumb_func
  23              	LEDR_Init:
  24              	.LFB0:
  25              		.file 1 "../Generated_Code/LEDR.c"
   1:../Generated_Code/LEDR.c **** /* ###################################################################
   2:../Generated_Code/LEDR.c **** **     This component module is generated by Processor Expert. Do not modify it.
   3:../Generated_Code/LEDR.c **** **     Filename    : LEDR.c
   4:../Generated_Code/LEDR.c **** **     Project     : ProcessorExpert
   5:../Generated_Code/LEDR.c **** **     Processor   : MKL25Z128VLK4
   6:../Generated_Code/LEDR.c **** **     Component   : LED
   7:../Generated_Code/LEDR.c **** **     Version     : Component 01.074, Driver 01.00, CPU db: 3.00.000
   8:../Generated_Code/LEDR.c **** **     Compiler    : GNU C Compiler
   9:../Generated_Code/LEDR.c **** **     Date/Time   : 2017-11-24, 20:36, # CodeGen: 0
  10:../Generated_Code/LEDR.c **** **     Abstract    :
  11:../Generated_Code/LEDR.c **** **          This component implements a universal driver for a single LED.
  12:../Generated_Code/LEDR.c **** **     Settings    :
  13:../Generated_Code/LEDR.c **** **          Component name                                 : LEDR
  14:../Generated_Code/LEDR.c **** **          Turned On with initialization                  : no
  15:../Generated_Code/LEDR.c **** **          HW Interface                                   : 
  16:../Generated_Code/LEDR.c **** **            On/Off                                       : Enabled
  17:../Generated_Code/LEDR.c **** **              Pin                                        : LEDpin
  18:../Generated_Code/LEDR.c **** **            PWM                                          : Disabled
  19:../Generated_Code/LEDR.c **** **            High Value means ON                          : no
  20:../Generated_Code/LEDR.c **** **          Shell                                          : Disabled
  21:../Generated_Code/LEDR.c **** **     Contents    :
  22:../Generated_Code/LEDR.c **** **         On         - void LEDR_On(void);
  23:../Generated_Code/LEDR.c **** **         Off        - void LEDR_Off(void);
  24:../Generated_Code/LEDR.c **** **         Neg        - void LEDR_Neg(void);
  25:../Generated_Code/LEDR.c **** **         Get        - uint8_t LEDR_Get(void);
  26:../Generated_Code/LEDR.c **** **         Put        - void LEDR_Put(uint8_t val);
  27:../Generated_Code/LEDR.c **** **         SetRatio16 - void LEDR_SetRatio16(uint16_t ratio);
  28:../Generated_Code/LEDR.c **** **         Deinit     - void LEDR_Deinit(void);
  29:../Generated_Code/LEDR.c **** **         Init       - void LEDR_Init(void);
  30:../Generated_Code/LEDR.c **** **
  31:../Generated_Code/LEDR.c **** **     * Copyright (c) 2013-2017, Erich Styger
  32:../Generated_Code/LEDR.c **** **      * Web:         https://mcuoneclipse.com
  33:../Generated_Code/LEDR.c **** **      * SourceForge: https://sourceforge.net/projects/mcuoneclipse
  34:../Generated_Code/LEDR.c **** **      * Git:         https://github.com/ErichStyger/McuOnEclipse_PEx
  35:../Generated_Code/LEDR.c **** **      * All rights reserved.
  36:../Generated_Code/LEDR.c **** **      *
  37:../Generated_Code/LEDR.c **** **      * Redistribution and use in source and binary forms, with or without modification,
  38:../Generated_Code/LEDR.c **** **      * are permitted provided that the following conditions are met:
  39:../Generated_Code/LEDR.c **** **      *
  40:../Generated_Code/LEDR.c **** **      * - Redistributions of source code must retain the above copyright notice, this list
  41:../Generated_Code/LEDR.c **** **      *   of conditions and the following disclaimer.
  42:../Generated_Code/LEDR.c **** **      *
  43:../Generated_Code/LEDR.c **** **      * - Redistributions in binary form must reproduce the above copyright notice, this
  44:../Generated_Code/LEDR.c **** **      *   list of conditions and the following disclaimer in the documentation and/or
  45:../Generated_Code/LEDR.c **** **      *   other materials provided with the distribution.
  46:../Generated_Code/LEDR.c **** **      *
  47:../Generated_Code/LEDR.c **** **      * THIS SOFTWARE IS PROVIDED BY THE COPYRIGHT HOLDERS AND CONTRIBUTORS "AS IS" AND
  48:../Generated_Code/LEDR.c **** **      * ANY EXPRESS OR IMPLIED WARRANTIES, INCLUDING, BUT NOT LIMITED TO, THE IMPLIED
  49:../Generated_Code/LEDR.c **** **      * WARRANTIES OF MERCHANTABILITY AND FITNESS FOR A PARTICULAR PURPOSE ARE
  50:../Generated_Code/LEDR.c **** **      * DISCLAIMED. IN NO EVENT SHALL THE COPYRIGHT HOLDER OR CONTRIBUTORS BE LIABLE FOR
  51:../Generated_Code/LEDR.c **** **      * ANY DIRECT, INDIRECT, INCIDENTAL, SPECIAL, EXEMPLARY, OR CONSEQUENTIAL DAMAGES
  52:../Generated_Code/LEDR.c **** **      * (INCLUDING, BUT NOT LIMITED TO, PROCUREMENT OF SUBSTITUTE GOODS OR SERVICES;
  53:../Generated_Code/LEDR.c **** **      * LOSS OF USE, DATA, OR PROFITS; OR BUSINESS INTERRUPTION) HOWEVER CAUSED AND ON
  54:../Generated_Code/LEDR.c **** **      * ANY THEORY OF LIABILITY, WHETHER IN CONTRACT, STRICT LIABILITY, OR TORT
  55:../Generated_Code/LEDR.c **** **      * (INCLUDING NEGLIGENCE OR OTHERWISE) ARISING IN ANY WAY OUT OF THE USE OF THIS
  56:../Generated_Code/LEDR.c **** **      * SOFTWARE, EVEN IF ADVISED OF THE POSSIBILITY OF SUCH DAMAGE.
  57:../Generated_Code/LEDR.c **** ** ###################################################################*/
  58:../Generated_Code/LEDR.c **** /*!
  59:../Generated_Code/LEDR.c **** ** @file LEDR.c
  60:../Generated_Code/LEDR.c **** ** @version 01.00
  61:../Generated_Code/LEDR.c **** ** @brief
  62:../Generated_Code/LEDR.c **** **          This component implements a universal driver for a single LED.
  63:../Generated_Code/LEDR.c **** */         
  64:../Generated_Code/LEDR.c **** /*!
  65:../Generated_Code/LEDR.c **** **  @addtogroup LEDR_module LEDR module documentation
  66:../Generated_Code/LEDR.c **** **  @{
  67:../Generated_Code/LEDR.c **** */         
  68:../Generated_Code/LEDR.c **** 
  69:../Generated_Code/LEDR.c **** /* MODULE LEDR. */
  70:../Generated_Code/LEDR.c **** 
  71:../Generated_Code/LEDR.c **** #include "LEDR.h"
  72:../Generated_Code/LEDR.c **** 
  73:../Generated_Code/LEDR.c **** /*
  74:../Generated_Code/LEDR.c **** ** ===================================================================
  75:../Generated_Code/LEDR.c **** **     Method      :  LEDR_On (component LED)
  76:../Generated_Code/LEDR.c **** **     Description :
  77:../Generated_Code/LEDR.c **** **         This turns the LED on.
  78:../Generated_Code/LEDR.c **** **     Parameters  : None
  79:../Generated_Code/LEDR.c **** **     Returns     : Nothing
  80:../Generated_Code/LEDR.c **** ** ===================================================================
  81:../Generated_Code/LEDR.c **** */
  82:../Generated_Code/LEDR.c **** /*
  83:../Generated_Code/LEDR.c **** void LEDR_On(void)
  84:../Generated_Code/LEDR.c **** {
  85:../Generated_Code/LEDR.c ****   *** This method is implemented as macro in the header file
  86:../Generated_Code/LEDR.c **** }
  87:../Generated_Code/LEDR.c **** */
  88:../Generated_Code/LEDR.c **** 
  89:../Generated_Code/LEDR.c **** /*
  90:../Generated_Code/LEDR.c **** ** ===================================================================
  91:../Generated_Code/LEDR.c **** **     Method      :  LEDR_Off (component LED)
  92:../Generated_Code/LEDR.c **** **     Description :
  93:../Generated_Code/LEDR.c **** **         This turns the LED off.
  94:../Generated_Code/LEDR.c **** **     Parameters  : None
  95:../Generated_Code/LEDR.c **** **     Returns     : Nothing
  96:../Generated_Code/LEDR.c **** ** ===================================================================
  97:../Generated_Code/LEDR.c **** */
  98:../Generated_Code/LEDR.c **** /*
  99:../Generated_Code/LEDR.c **** void LEDR_Off(void)
 100:../Generated_Code/LEDR.c **** {
 101:../Generated_Code/LEDR.c ****   *** This method is implemented as macro in the header file
 102:../Generated_Code/LEDR.c **** }
 103:../Generated_Code/LEDR.c **** */
 104:../Generated_Code/LEDR.c **** 
 105:../Generated_Code/LEDR.c **** /*
 106:../Generated_Code/LEDR.c **** ** ===================================================================
 107:../Generated_Code/LEDR.c **** **     Method      :  LEDR_Neg (component LED)
 108:../Generated_Code/LEDR.c **** **     Description :
 109:../Generated_Code/LEDR.c **** **         This negates/toggles the LED
 110:../Generated_Code/LEDR.c **** **     Parameters  : None
 111:../Generated_Code/LEDR.c **** **     Returns     : Nothing
 112:../Generated_Code/LEDR.c **** ** ===================================================================
 113:../Generated_Code/LEDR.c **** */
 114:../Generated_Code/LEDR.c **** /*
 115:../Generated_Code/LEDR.c **** void LEDR_Neg(void)
 116:../Generated_Code/LEDR.c **** {
 117:../Generated_Code/LEDR.c ****   *** This method is implemented as macro in the header file
 118:../Generated_Code/LEDR.c **** }
 119:../Generated_Code/LEDR.c **** */
 120:../Generated_Code/LEDR.c **** 
 121:../Generated_Code/LEDR.c **** /*
 122:../Generated_Code/LEDR.c **** ** ===================================================================
 123:../Generated_Code/LEDR.c **** **     Method      :  LEDR_Get (component LED)
 124:../Generated_Code/LEDR.c **** **     Description :
 125:../Generated_Code/LEDR.c **** **         This returns logical 1 in case the LED is on, 0 otherwise.
 126:../Generated_Code/LEDR.c **** **     Parameters  : None
 127:../Generated_Code/LEDR.c **** **     Returns     :
 128:../Generated_Code/LEDR.c **** **         ---             - Status of the LED (on or off)
 129:../Generated_Code/LEDR.c **** ** ===================================================================
 130:../Generated_Code/LEDR.c **** */
 131:../Generated_Code/LEDR.c **** /*
 132:../Generated_Code/LEDR.c **** uint8_t LEDR_Get(void)
 133:../Generated_Code/LEDR.c **** {
 134:../Generated_Code/LEDR.c ****   *** This method is implemented as macro in the header file
 135:../Generated_Code/LEDR.c **** }
 136:../Generated_Code/LEDR.c **** */
 137:../Generated_Code/LEDR.c **** 
 138:../Generated_Code/LEDR.c **** /*
 139:../Generated_Code/LEDR.c **** ** ===================================================================
 140:../Generated_Code/LEDR.c **** **     Method      :  LEDR_Put (component LED)
 141:../Generated_Code/LEDR.c **** **     Description :
 142:../Generated_Code/LEDR.c **** **         Turns the LED on or off.
 143:../Generated_Code/LEDR.c **** **     Parameters  :
 144:../Generated_Code/LEDR.c **** **         NAME            - DESCRIPTION
 145:../Generated_Code/LEDR.c **** **         val             - value to define if the LED has to be on or
 146:../Generated_Code/LEDR.c **** **                           off.
 147:../Generated_Code/LEDR.c **** **     Returns     : Nothing
 148:../Generated_Code/LEDR.c **** ** ===================================================================
 149:../Generated_Code/LEDR.c **** */
 150:../Generated_Code/LEDR.c **** /*
 151:../Generated_Code/LEDR.c **** void LEDR_Put(uint8_t val)
 152:../Generated_Code/LEDR.c **** {
 153:../Generated_Code/LEDR.c ****   *** This method is implemented as macro in the header file
 154:../Generated_Code/LEDR.c **** }
 155:../Generated_Code/LEDR.c **** */
 156:../Generated_Code/LEDR.c **** 
 157:../Generated_Code/LEDR.c **** /*
 158:../Generated_Code/LEDR.c **** ** ===================================================================
 159:../Generated_Code/LEDR.c **** **     Method      :  LEDR_Init (component LED)
 160:../Generated_Code/LEDR.c **** **     Description :
 161:../Generated_Code/LEDR.c **** **         Performs the LED driver initialization.
 162:../Generated_Code/LEDR.c **** **     Parameters  : None
 163:../Generated_Code/LEDR.c **** **     Returns     : Nothing
 164:../Generated_Code/LEDR.c **** ** ===================================================================
 165:../Generated_Code/LEDR.c **** */
 166:../Generated_Code/LEDR.c **** void LEDR_Init(void)
 167:../Generated_Code/LEDR.c **** {
  26              		.loc 1 167 0
  27              		.cfi_startproc
  28 0000 08B5     		push	{r3, lr}
  29              	.LCFI0:
  30              		.cfi_def_cfa_offset 8
  31              		.cfi_offset 3, -8
  32              		.cfi_offset 14, -4
 168:../Generated_Code/LEDR.c **** #if MCUC1_CONFIG_SDK_VERSION_USED != MCUC1_CONFIG_SDK_PROCESSOR_EXPERT
 169:../Generated_Code/LEDR.c ****   LEDpin3_Init();
 170:../Generated_Code/LEDR.c **** #endif
 171:../Generated_Code/LEDR.c ****   LEDR_Off();
  33              		.loc 1 171 0
  34 0002 024B     		ldr	r3, .L2
 172:../Generated_Code/LEDR.c **** }
  35              		.loc 1 172 0
  36              		@ sp needed for prologue
 171:../Generated_Code/LEDR.c ****   LEDR_Off();
  37              		.loc 1 171 0
  38 0004 1868     		ldr	r0, [r3]
  39 0006 FFF7FEFF 		bl	BitIoLdd3_SetVal
  40              	.LVL0:
  41              		.loc 1 172 0
  42 000a 08BD     		pop	{r3, pc}
  43              	.L3:
  44              		.align	2
  45              	.L2:
  46 000c 00000000 		.word	PE_LDD_DeviceDataList
  47              		.cfi_endproc
  48              	.LFE0:
  50              		.section	.text.LEDR_Deinit,"ax",%progbits
  51              		.align	2
  52              		.global	LEDR_Deinit
  53              		.code	16
  54              		.thumb_func
  56              	LEDR_Deinit:
  57              	.LFB1:
 173:../Generated_Code/LEDR.c **** 
 174:../Generated_Code/LEDR.c **** /*
 175:../Generated_Code/LEDR.c **** ** ===================================================================
 176:../Generated_Code/LEDR.c **** **     Method      :  LEDR_Deinit (component LED)
 177:../Generated_Code/LEDR.c **** **     Description :
 178:../Generated_Code/LEDR.c **** **         Deinitializes the driver
 179:../Generated_Code/LEDR.c **** **     Parameters  : None
 180:../Generated_Code/LEDR.c **** **     Returns     : Nothing
 181:../Generated_Code/LEDR.c **** ** ===================================================================
 182:../Generated_Code/LEDR.c **** */
 183:../Generated_Code/LEDR.c **** void LEDR_Deinit(void)
 184:../Generated_Code/LEDR.c **** {
  58              		.loc 1 184 0
  59              		.cfi_startproc
 185:../Generated_Code/LEDR.c **** #if MCUC1_CONFIG_SDK_VERSION_USED != MCUC1_CONFIG_SDK_PROCESSOR_EXPERT
 186:../Generated_Code/LEDR.c ****   LEDpin3_Deinit();
 187:../Generated_Code/LEDR.c **** #endif
 188:../Generated_Code/LEDR.c **** }
  60              		.loc 1 188 0
  61              		@ sp needed for prologue
  62 0000 7047     		bx	lr
  63              		.cfi_endproc
  64              	.LFE1:
  66 0002 C046     		.section	.text.LEDR_SetRatio16,"ax",%progbits
  67              		.align	2
  68              		.global	LEDR_SetRatio16
  69              		.code	16
  70              		.thumb_func
  72              	LEDR_SetRatio16:
  73              	.LFB2:
 189:../Generated_Code/LEDR.c **** 
 190:../Generated_Code/LEDR.c **** /*
 191:../Generated_Code/LEDR.c **** ** ===================================================================
 192:../Generated_Code/LEDR.c **** **     Method      :  LEDR_SetRatio16 (component LED)
 193:../Generated_Code/LEDR.c **** **     Description :
 194:../Generated_Code/LEDR.c **** **         Method to specify the duty cycle. If using a PWM pin, this
 195:../Generated_Code/LEDR.c **** **         means the duty cycle is set. For On/off pins, values smaller
 196:../Generated_Code/LEDR.c **** **         0x7FFF means off, while values greater means on.
 197:../Generated_Code/LEDR.c **** **     Parameters  :
 198:../Generated_Code/LEDR.c **** **         NAME            - DESCRIPTION
 199:../Generated_Code/LEDR.c **** **         ratio           - Ratio value, where 0 means 'off' and
 200:../Generated_Code/LEDR.c **** **                           0xffff means 'on'
 201:../Generated_Code/LEDR.c **** **     Returns     : Nothing
 202:../Generated_Code/LEDR.c **** ** ===================================================================
 203:../Generated_Code/LEDR.c **** */
 204:../Generated_Code/LEDR.c **** void LEDR_SetRatio16(uint16_t ratio)
 205:../Generated_Code/LEDR.c **** {
  74              		.loc 1 205 0
  75              		.cfi_startproc
  76              	.LVL1:
  77 0000 08B5     		push	{r3, lr}
  78              	.LCFI1:
  79              		.cfi_def_cfa_offset 8
  80              		.cfi_offset 3, -8
  81              		.cfi_offset 14, -4
 206:../Generated_Code/LEDR.c ****   /* on/off LED: binary on or off */
 207:../Generated_Code/LEDR.c ****   if (ratio<(0xffff/2)) {
  82              		.loc 1 207 0
  83 0002 064B     		ldr	r3, .L10
  84 0004 9842     		cmp	r0, r3
  85 0006 04D9     		bls	.L9
 208:../Generated_Code/LEDR.c ****     LEDR_Off();
 209:../Generated_Code/LEDR.c ****   } else {
 210:../Generated_Code/LEDR.c ****     LEDR_On();
  86              		.loc 1 210 0
  87 0008 0548     		ldr	r0, .L10+4
  88              	.LVL2:
  89 000a 0068     		ldr	r0, [r0]
  90 000c FFF7FEFF 		bl	BitIoLdd3_ClrVal
  91              	.LVL3:
  92              	.L5:
 211:../Generated_Code/LEDR.c ****   }
 212:../Generated_Code/LEDR.c **** }
  93              		.loc 1 212 0
  94              		@ sp needed for prologue
  95 0010 08BD     		pop	{r3, pc}
  96              	.LVL4:
  97              	.L9:
 208:../Generated_Code/LEDR.c ****     LEDR_Off();
  98              		.loc 1 208 0
  99 0012 0349     		ldr	r1, .L10+4
 100 0014 0868     		ldr	r0, [r1]
 101              	.LVL5:
 102 0016 FFF7FEFF 		bl	BitIoLdd3_SetVal
 103              	.LVL6:
 104 001a F9E7     		b	.L5
 105              	.L11:
 106              		.align	2
 107              	.L10:
 108 001c FE7F0000 		.word	32766
 109 0020 00000000 		.word	PE_LDD_DeviceDataList
 110              		.cfi_endproc
 111              	.LFE2:
 113              		.text
 114              	.Letext0:
 115              		.file 2 "C:/Freescale/CW MCU v10.7/MCU/ARM_GCC_Support/ewl/EWL_C/include/cstdint"
 116              		.file 3 "../Generated_Code/PE_Types.h"