   1              		.cpu cortex-m0
   2              		.fpu softvfp
   3              		.eabi_attribute 20, 1
   4              		.eabi_attribute 21, 1
   5              		.eabi_attribute 23, 3
   6              		.eabi_attribute 24, 1
   7              		.eabi_attribute 25, 1
   8              		.eabi_attribute 26, 1
   9              		.eabi_attribute 30, 2
  10              		.eabi_attribute 34, 0
  11              		.eabi_attribute 18, 4
  12              		.code	16
  13              		.file	"PE_LDD.c"
  14              		.text
  15              	.Ltext0:
  16              		.cfi_sections	.debug_frame
  17              		.section	.text.PE_FillMemory,"ax",%progbits
  18              		.align	2
  19              		.global	PE_FillMemory
  20              		.code	16
  21              		.thumb_func
  23              	PE_FillMemory:
  24              	.LFB0:
  25              		.file 1 "../Generated_Code/PE_LDD.c"
   1:../Generated_Code/PE_LDD.c **** /** ###################################################################
   2:../Generated_Code/PE_LDD.c **** **     This component module is generated by Processor Expert. Do not modify it.
   3:../Generated_Code/PE_LDD.c **** **     Filename    : PE_LDD.c
   4:../Generated_Code/PE_LDD.c **** **     Project     : ProcessorExpert
   5:../Generated_Code/PE_LDD.c **** **     Processor   : MKL25Z128VLK4
   6:../Generated_Code/PE_LDD.c **** **     Version     : Component 01.025, Driver 01.04, CPU db: 3.00.000
   7:../Generated_Code/PE_LDD.c **** **     Compiler    : GNU C Compiler
   8:../Generated_Code/PE_LDD.c **** **     Date/Time   : 2017-11-24, 20:36, # CodeGen: 0
   9:../Generated_Code/PE_LDD.c **** **     Abstract    :
  10:../Generated_Code/PE_LDD.c **** **
  11:../Generated_Code/PE_LDD.c **** **     Settings    :
  12:../Generated_Code/PE_LDD.c **** **
  13:../Generated_Code/PE_LDD.c **** **
  14:../Generated_Code/PE_LDD.c **** **     Copyright : 1997 - 2014 Freescale Semiconductor, Inc. 
  15:../Generated_Code/PE_LDD.c **** **     All Rights Reserved.
  16:../Generated_Code/PE_LDD.c **** **     
  17:../Generated_Code/PE_LDD.c **** **     Redistribution and use in source and binary forms, with or without modification,
  18:../Generated_Code/PE_LDD.c **** **     are permitted provided that the following conditions are met:
  19:../Generated_Code/PE_LDD.c **** **     
  20:../Generated_Code/PE_LDD.c **** **     o Redistributions of source code must retain the above copyright notice, this list
  21:../Generated_Code/PE_LDD.c **** **       of conditions and the following disclaimer.
  22:../Generated_Code/PE_LDD.c **** **     
  23:../Generated_Code/PE_LDD.c **** **     o Redistributions in binary form must reproduce the above copyright notice, this
  24:../Generated_Code/PE_LDD.c **** **       list of conditions and the following disclaimer in the documentation and/or
  25:../Generated_Code/PE_LDD.c **** **       other materials provided with the distribution.
  26:../Generated_Code/PE_LDD.c **** **     
  27:../Generated_Code/PE_LDD.c **** **     o Neither the name of Freescale Semiconductor, Inc. nor the names of its
  28:../Generated_Code/PE_LDD.c **** **       contributors may be used to endorse or promote products derived from this
  29:../Generated_Code/PE_LDD.c **** **       software without specific prior written permission.
  30:../Generated_Code/PE_LDD.c **** **     
  31:../Generated_Code/PE_LDD.c **** **     THIS SOFTWARE IS PROVIDED BY THE COPYRIGHT HOLDERS AND CONTRIBUTORS "AS IS" AND
  32:../Generated_Code/PE_LDD.c **** **     ANY EXPRESS OR IMPLIED WARRANTIES, INCLUDING, BUT NOT LIMITED TO, THE IMPLIED
  33:../Generated_Code/PE_LDD.c **** **     WARRANTIES OF MERCHANTABILITY AND FITNESS FOR A PARTICULAR PURPOSE ARE
  34:../Generated_Code/PE_LDD.c **** **     DISCLAIMED. IN NO EVENT SHALL THE COPYRIGHT HOLDER OR CONTRIBUTORS BE LIABLE FOR
  35:../Generated_Code/PE_LDD.c **** **     ANY DIRECT, INDIRECT, INCIDENTAL, SPECIAL, EXEMPLARY, OR CONSEQUENTIAL DAMAGES
  36:../Generated_Code/PE_LDD.c **** **     (INCLUDING, BUT NOT LIMITED TO, PROCUREMENT OF SUBSTITUTE GOODS OR SERVICES;
  37:../Generated_Code/PE_LDD.c **** **     LOSS OF USE, DATA, OR PROFITS; OR BUSINESS INTERRUPTION) HOWEVER CAUSED AND ON
  38:../Generated_Code/PE_LDD.c **** **     ANY THEORY OF LIABILITY, WHETHER IN CONTRACT, STRICT LIABILITY, OR TORT
  39:../Generated_Code/PE_LDD.c **** **     (INCLUDING NEGLIGENCE OR OTHERWISE) ARISING IN ANY WAY OUT OF THE USE OF THIS
  40:../Generated_Code/PE_LDD.c **** **     SOFTWARE, EVEN IF ADVISED OF THE POSSIBILITY OF SUCH DAMAGE.
  41:../Generated_Code/PE_LDD.c **** **     
  42:../Generated_Code/PE_LDD.c **** **     http: www.freescale.com
  43:../Generated_Code/PE_LDD.c **** **     mail: support@freescale.com
  44:../Generated_Code/PE_LDD.c **** ** ###################################################################*/
  45:../Generated_Code/PE_LDD.c **** /*!
  46:../Generated_Code/PE_LDD.c **** ** @file PE_LDD.c                                                  
  47:../Generated_Code/PE_LDD.c **** ** @version 01.04
  48:../Generated_Code/PE_LDD.c **** ** @brief
  49:../Generated_Code/PE_LDD.c **** **
  50:../Generated_Code/PE_LDD.c **** */         
  51:../Generated_Code/PE_LDD.c **** /*!
  52:../Generated_Code/PE_LDD.c **** **  @addtogroup PE_LDD_module PE_LDD module documentation
  53:../Generated_Code/PE_LDD.c **** **  @{
  54:../Generated_Code/PE_LDD.c **** */         
  55:../Generated_Code/PE_LDD.c **** 
  56:../Generated_Code/PE_LDD.c **** /* MODULE PE_LDD. */
  57:../Generated_Code/PE_LDD.c **** 
  58:../Generated_Code/PE_LDD.c **** /* {Default RTOS Adapter} No RTOS includes */
  59:../Generated_Code/PE_LDD.c **** /* {Default RTOS Adapter} No RTOS driver includes */
  60:../Generated_Code/PE_LDD.c **** 
  61:../Generated_Code/PE_LDD.c **** #include "PE_LDD.h"
  62:../Generated_Code/PE_LDD.c **** #include "Cpu.h"
  63:../Generated_Code/PE_LDD.c **** 
  64:../Generated_Code/PE_LDD.c **** /*lint -esym(765,PE_PeripheralUsed,LDD_SetClockConfiguration,PE_CpuClockConfigurations,PE_FillMemor
  65:../Generated_Code/PE_LDD.c **** 
  66:../Generated_Code/PE_LDD.c **** /*
  67:../Generated_Code/PE_LDD.c **** ** ===========================================================================
  68:../Generated_Code/PE_LDD.c **** ** Array of initialized device structures of LDD components.
  69:../Generated_Code/PE_LDD.c **** ** ===========================================================================
  70:../Generated_Code/PE_LDD.c **** */
  71:../Generated_Code/PE_LDD.c **** LDD_TDeviceData *PE_LDD_DeviceDataList[3] = {
  72:../Generated_Code/PE_LDD.c ****     NULL,
  73:../Generated_Code/PE_LDD.c ****     NULL,
  74:../Generated_Code/PE_LDD.c ****     NULL
  75:../Generated_Code/PE_LDD.c ****   };
  76:../Generated_Code/PE_LDD.c **** 
  77:../Generated_Code/PE_LDD.c **** /*
  78:../Generated_Code/PE_LDD.c **** ** ===========================================================================
  79:../Generated_Code/PE_LDD.c **** ** The array of clock frequencies in configured clock configurations.
  80:../Generated_Code/PE_LDD.c **** ** ===========================================================================
  81:../Generated_Code/PE_LDD.c **** */
  82:../Generated_Code/PE_LDD.c **** /*! The array of clock configurations (frequencies) configured in configured clock configurations o
  83:../Generated_Code/PE_LDD.c **** const TCpuClockConfiguration PE_CpuClockConfigurations[CPU_CLOCK_CONFIG_NUMBER] = {
  84:../Generated_Code/PE_LDD.c ****   /* Clock configuration 0 */
  85:../Generated_Code/PE_LDD.c ****   {
  86:../Generated_Code/PE_LDD.c ****     CPU_CORE_CLK_HZ_CONFIG_0,          /*!< Core clock frequency in clock configuration 0 */
  87:../Generated_Code/PE_LDD.c ****     CPU_BUS_CLK_HZ_CONFIG_0,           /*!< Bus clock frequency in clock configuration 0 */
  88:../Generated_Code/PE_LDD.c ****     CPU_FLEXBUS_CLK_HZ_CONFIG_0,       /*!< Flexbus clock frequency in clock configuration 0 */
  89:../Generated_Code/PE_LDD.c ****     CPU_FLASH_CLK_HZ_CONFIG_0,         /*!< FLASH clock frequency in clock configuration 0 */
  90:../Generated_Code/PE_LDD.c ****     CPU_USB_CLK_HZ_CONFIG_0,           /*!< USB clock frequency in clock configuration 0 */
  91:../Generated_Code/PE_LDD.c ****     CPU_PLL_FLL_CLK_HZ_CONFIG_0,       /*!< PLL/FLL clock frequency in clock configuration 0 */
  92:../Generated_Code/PE_LDD.c ****     CPU_MCGIR_CLK_HZ_CONFIG_0,         /*!< MCG internal reference clock frequency in clock configu
  93:../Generated_Code/PE_LDD.c ****     CPU_OSCER_CLK_HZ_CONFIG_0,         /*!< System OSC external reference clock frequency in clock 
  94:../Generated_Code/PE_LDD.c ****     CPU_ERCLK32K_CLK_HZ_CONFIG_0,      /*!< External reference clock 32k frequency in clock configu
  95:../Generated_Code/PE_LDD.c ****     CPU_MCGFF_CLK_HZ_CONFIG_0          /*!< MCG fixed frequency clock */
  96:../Generated_Code/PE_LDD.c ****   }
  97:../Generated_Code/PE_LDD.c **** };
  98:../Generated_Code/PE_LDD.c **** 
  99:../Generated_Code/PE_LDD.c **** /*
 100:../Generated_Code/PE_LDD.c **** ** ===================================================================
 101:../Generated_Code/PE_LDD.c **** **     Method      :  Cpu_PE_FillMemory (component MKL25Z128LK4)
 102:../Generated_Code/PE_LDD.c **** */
 103:../Generated_Code/PE_LDD.c **** /*!
 104:../Generated_Code/PE_LDD.c **** **     @brief
 105:../Generated_Code/PE_LDD.c **** **         Fills a memory area block by a specified value.
 106:../Generated_Code/PE_LDD.c **** **     @param
 107:../Generated_Code/PE_LDD.c **** **       SourceAddressPtr - Source address pointer.
 108:../Generated_Code/PE_LDD.c **** **     @param
 109:../Generated_Code/PE_LDD.c **** **       c - A value used to fill a memory block.
 110:../Generated_Code/PE_LDD.c **** **     @param
 111:../Generated_Code/PE_LDD.c **** **       len - Length of a memory block to fill.
 112:../Generated_Code/PE_LDD.c **** */
 113:../Generated_Code/PE_LDD.c **** /* ===================================================================*/
 114:../Generated_Code/PE_LDD.c **** void PE_FillMemory(register void* SourceAddressPtr, register uint8_t c, register uint32_t len)
 115:../Generated_Code/PE_LDD.c **** {
  26              		.loc 1 115 0
  27              		.cfi_startproc
  28              	.LVL0:
  29 0000 F0B5     		push	{r4, r5, r6, r7, lr}
  30              	.LCFI0:
  31              		.cfi_def_cfa_offset 20
  32              		.cfi_offset 4, -20
  33              		.cfi_offset 5, -16
  34              		.cfi_offset 6, -12
  35              		.cfi_offset 7, -8
  36              		.cfi_offset 14, -4
  37 0002 5F46     		mov	r7, fp
  38 0004 5646     		mov	r6, sl
  39 0006 4D46     		mov	r5, r9
  40 0008 4446     		mov	r4, r8
  41 000a F0B4     		push	{r4, r5, r6, r7}
  42              	.LCFI1:
  43              		.cfi_def_cfa_offset 36
  44              		.cfi_offset 8, -36
  45              		.cfi_offset 9, -32
  46              		.cfi_offset 10, -28
  47              		.cfi_offset 11, -24
 116:../Generated_Code/PE_LDD.c ****   register uint8_t *ptr = (uint8_t*)SourceAddressPtr;
 117:../Generated_Code/PE_LDD.c **** 
 118:../Generated_Code/PE_LDD.c ****   if (len > 0U) {
  48              		.loc 1 118 0
  49 000c 002A     		cmp	r2, #0
  50 000e 65D0     		beq	.L1
 114:../Generated_Code/PE_LDD.c **** void PE_FillMemory(register void* SourceAddressPtr, register uint8_t c, register uint32_t len)
  51              		.loc 1 114 0
  52 0010 4342     		neg	r3, r0
  53 0012 0324     		mov	r4, #3
 119:../Generated_Code/PE_LDD.c ****     while (len--) {
  54              		.loc 1 119 0
  55 0014 561E     		sub	r6, r2, #1
  56              	.LVL1:
 114:../Generated_Code/PE_LDD.c **** void PE_FillMemory(register void* SourceAddressPtr, register uint8_t c, register uint32_t len)
  57              		.loc 1 114 0
  58 0016 1C40     		and	r4, r3
  59 0018 9442     		cmp	r4, r2
  60 001a 65D8     		bhi	.L42
  61              	.L3:
  62 001c 032A     		cmp	r2, #3
  63 001e 65D8     		bhi	.L43
 114:../Generated_Code/PE_LDD.c **** void PE_FillMemory(register void* SourceAddressPtr, register uint8_t c, register uint32_t len)
  64              		.loc 1 114 0 is_stmt 0
  65 0020 141C     		mov	r4, r2
  66              	.L4:
  67 0022 C543     		mvn	r5, r0
  68 0024 4719     		add	r7, r0, r5
  69 0026 3B19     		add	r3, r7, r4
  70 0028 0125     		mov	r5, #1
  71 002a 1D40     		and	r5, r3
 120:../Generated_Code/PE_LDD.c ****       *ptr++ = c;
  72              		.loc 1 120 0 is_stmt 1
  73 002c 0170     		strb	r1, [r0]
 119:../Generated_Code/PE_LDD.c ****     while (len--) {
  74              		.loc 1 119 0
  75 002e 013E     		sub	r6, r6, #1
  76              	.LVL2:
  77 0030 431C     		add	r3, r0, #1
  78 0032 012C     		cmp	r4, #1
  79 0034 0ED9     		bls	.L39
  80 0036 002D     		cmp	r5, #0
  81 0038 05D0     		beq	.L6
  82              		.loc 1 120 0
  83 003a 1970     		strb	r1, [r3]
  84 003c 0133     		add	r3, r3, #1
  85              	.LVL3:
 119:../Generated_Code/PE_LDD.c ****     while (len--) {
  86              		.loc 1 119 0
  87 003e 013E     		sub	r6, r6, #1
  88              	.LVL4:
  89 0040 1F1A     		sub	r7, r3, r0
  90 0042 BC42     		cmp	r4, r7
  91 0044 06D9     		bls	.L39
  92              	.L6:
  93              		.loc 1 120 0
  94 0046 1970     		strb	r1, [r3]
  95 0048 5970     		strb	r1, [r3, #1]
  96 004a 0233     		add	r3, r3, #2
 119:../Generated_Code/PE_LDD.c ****     while (len--) {
  97              		.loc 1 119 0
  98 004c 023E     		sub	r6, r6, #2
  99              	.LVL5:
 100 004e 1D1A     		sub	r5, r3, r0
 101 0050 AC42     		cmp	r4, r5
 102 0052 F8D8     		bhi	.L6
 103              	.L39:
 104 0054 A242     		cmp	r2, r4
 105 0056 41D0     		beq	.L1
 106              	.L5:
 107 0058 121B     		sub	r2, r2, r4
 108 005a 9708     		lsr	r7, r2, #2
 109 005c BD00     		lsl	r5, r7, #2
 110 005e 9046     		mov	r8, r2
 111 0060 BB46     		mov	fp, r7
 112 0062 AC46     		mov	ip, r5
 113 0064 25D0     		beq	.L8
 114 0066 0D02     		lsl	r5, r1, #8
 115 0068 0D43     		orr	r5, r1
 116 006a 0F04     		lsl	r7, r1, #16
 117 006c 0A06     		lsl	r2, r1, #24
 118 006e 2F43     		orr	r7, r5
 119 0070 0125     		mov	r5, #1
 120 0072 1743     		orr	r7, r2
 121 0074 6A42     		neg	r2, r5
 122 0076 9246     		mov	sl, r2
 123 0078 DA44     		add	sl, sl, fp
 124 007a 5246     		mov	r2, sl
 125 007c 0125     		mov	r5, #1
 126 007e 1540     		and	r5, r2
 127 0080 AA46     		mov	sl, r5
 128              		.loc 1 120 0
 129 0082 0019     		add	r0, r0, r4
 130              	.LVL6:
 131 0084 0125     		mov	r5, #1
 132 0086 80C0     		stmia	r0!, {r7}
 133              	.LVL7:
 134 0088 5D45     		cmp	r5, fp
 135 008a 0DD2     		bcs	.L40
 136 008c 5446     		mov	r4, sl
 137 008e 002C     		cmp	r4, #0
 138 0090 03D0     		beq	.L9
 139 0092 0225     		mov	r5, #2
 140 0094 80C0     		stmia	r0!, {r7}
 141 0096 5D45     		cmp	r5, fp
 142 0098 06D2     		bcs	.L40
 143              	.L9:
 144 009a 021C     		mov	r2, r0
 145 009c 80C2     		stmia	r2!, {r7}
 146 009e 0235     		add	r5, r5, #2
 147 00a0 4760     		str	r7, [r0, #4]
 148 00a2 101D     		add	r0, r2, #4
 149 00a4 5D45     		cmp	r5, fp
 150 00a6 F8D3     		bcc	.L9
 151              	.L40:
 152 00a8 6746     		mov	r7, ip
 153 00aa 6344     		add	r3, r3, ip
 154 00ac F61B     		sub	r6, r6, r7
 155 00ae E045     		cmp	r8, ip
 156 00b0 14D0     		beq	.L1
 157              	.L8:
 114:../Generated_Code/PE_LDD.c **** void PE_FillMemory(register void* SourceAddressPtr, register uint8_t c, register uint32_t len)
 158              		.loc 1 114 0
 159 00b2 0136     		add	r6, r6, #1
 160 00b4 9C19     		add	r4, r3, r6
 161 00b6 D843     		mvn	r0, r3
 162 00b8 2518     		add	r5, r4, r0
 163 00ba 0122     		mov	r2, #1
 164              		.loc 1 120 0
 165 00bc 1970     		strb	r1, [r3]
 166 00be 0133     		add	r3, r3, #1
 167 00c0 1540     		and	r5, r2
 119:../Generated_Code/PE_LDD.c ****     while (len--) {
 168              		.loc 1 119 0
 169 00c2 A342     		cmp	r3, r4
 170 00c4 0AD0     		beq	.L1
 171 00c6 002D     		cmp	r5, #0
 172 00c8 03D0     		beq	.L11
 173              		.loc 1 120 0
 174 00ca 1970     		strb	r1, [r3]
 175 00cc 0133     		add	r3, r3, #1
 119:../Generated_Code/PE_LDD.c ****     while (len--) {
 176              		.loc 1 119 0
 177 00ce A342     		cmp	r3, r4
 178 00d0 04D0     		beq	.L1
 179              	.L11:
 180              		.loc 1 120 0
 181 00d2 1970     		strb	r1, [r3]
 182 00d4 5970     		strb	r1, [r3, #1]
 183 00d6 0233     		add	r3, r3, #2
 119:../Generated_Code/PE_LDD.c ****     while (len--) {
 184              		.loc 1 119 0
 185 00d8 A342     		cmp	r3, r4
 186 00da FAD1     		bne	.L11
 187              	.L1:
 121:../Generated_Code/PE_LDD.c ****     }
 122:../Generated_Code/PE_LDD.c ****   }
 123:../Generated_Code/PE_LDD.c **** }
 188              		.loc 1 123 0
 189              		@ sp needed for prologue
 190 00dc 3CBC     		pop	{r2, r3, r4, r5}
 191 00de 9046     		mov	r8, r2
 192 00e0 9946     		mov	r9, r3
 193 00e2 A246     		mov	sl, r4
 194 00e4 AB46     		mov	fp, r5
 195 00e6 F0BD     		pop	{r4, r5, r6, r7, pc}
 196              	.LVL8:
 197              	.L42:
 198 00e8 141C     		mov	r4, r2
 199 00ea 97E7     		b	.L3
 200              	.L43:
 201 00ec 002C     		cmp	r4, #0
 202 00ee 98D1     		bne	.L4
 114:../Generated_Code/PE_LDD.c **** void PE_FillMemory(register void* SourceAddressPtr, register uint8_t c, register uint32_t len)
 203              		.loc 1 114 0
 204 00f0 031C     		mov	r3, r0
 205 00f2 B1E7     		b	.L5
 206              		.cfi_endproc
 207              	.LFE0:
 209              		.section	.text.PE_PeripheralUsed,"ax",%progbits
 210              		.align	2
 211              		.global	PE_PeripheralUsed
 212              		.code	16
 213              		.thumb_func
 215              	PE_PeripheralUsed:
 216              	.LFB1:
 124:../Generated_Code/PE_LDD.c **** 
 125:../Generated_Code/PE_LDD.c **** /*
 126:../Generated_Code/PE_LDD.c **** ** ===================================================================
 127:../Generated_Code/PE_LDD.c **** **     Method      :  Cpu_PE_PeripheralUsed (component MKL25Z128LK4)
 128:../Generated_Code/PE_LDD.c **** */
 129:../Generated_Code/PE_LDD.c **** /*!
 130:../Generated_Code/PE_LDD.c **** **     @brief
 131:../Generated_Code/PE_LDD.c **** **         Returns information whether a peripheral is allocated by PEx 
 132:../Generated_Code/PE_LDD.c **** **         or not.
 133:../Generated_Code/PE_LDD.c **** **     @param
 134:../Generated_Code/PE_LDD.c **** **       PrphBaseAddress - Base address of a peripheral.
 135:../Generated_Code/PE_LDD.c **** **     @return
 136:../Generated_Code/PE_LDD.c **** **       TRUE if a peripheral is used by PEx or FALSE if it isn't used.
 137:../Generated_Code/PE_LDD.c **** */
 138:../Generated_Code/PE_LDD.c **** /* ===================================================================*/
 139:../Generated_Code/PE_LDD.c **** bool PE_PeripheralUsed(uint32_t PrphBaseAddress)
 140:../Generated_Code/PE_LDD.c **** {
 217              		.loc 1 140 0
 218              		.cfi_startproc
 219              	.LVL9:
 141:../Generated_Code/PE_LDD.c ****   bool result = FALSE;
 142:../Generated_Code/PE_LDD.c **** 
 143:../Generated_Code/PE_LDD.c ****   switch (PrphBaseAddress) {
 220              		.loc 1 143 0
 221 0000 054B     		ldr	r3, .L48
 140:../Generated_Code/PE_LDD.c **** {
 222              		.loc 1 140 0
 223 0002 00B5     		push	{lr}
 224              	.LCFI2:
 225              		.cfi_def_cfa_offset 4
 226              		.cfi_offset 14, -4
 227              		.loc 1 143 0
 228 0004 9842     		cmp	r0, r3
 229 0006 04D0     		beq	.L47
 230 0008 0449     		ldr	r1, .L48+4
 231 000a 8842     		cmp	r0, r1
 232 000c 01D0     		beq	.L47
 141:../Generated_Code/PE_LDD.c ****   bool result = FALSE;
 233              		.loc 1 141 0
 234 000e 0020     		mov	r0, #0
 235              	.LVL10:
 236              	.L46:
 144:../Generated_Code/PE_LDD.c ****     /* Base address allocated by peripheral(s) PTB */
 145:../Generated_Code/PE_LDD.c ****     case 0x400FF040UL:
 146:../Generated_Code/PE_LDD.c ****     /* Base address allocated by peripheral(s) PTD */
 147:../Generated_Code/PE_LDD.c ****     case 0x400FF0C0UL:
 148:../Generated_Code/PE_LDD.c ****       result = TRUE;
 149:../Generated_Code/PE_LDD.c ****       break;
 150:../Generated_Code/PE_LDD.c ****     default:
 151:../Generated_Code/PE_LDD.c ****       break;
 152:../Generated_Code/PE_LDD.c ****   }
 153:../Generated_Code/PE_LDD.c ****   return result;
 154:../Generated_Code/PE_LDD.c **** }
 237              		.loc 1 154 0
 238              		@ sp needed for prologue
 239 0010 00BD     		pop	{pc}
 240              	.LVL11:
 241              	.L47:
 148:../Generated_Code/PE_LDD.c ****       result = TRUE;
 242              		.loc 1 148 0
 243 0012 0120     		mov	r0, #1
 244              	.LVL12:
 245 0014 FCE7     		b	.L46
 246              	.L49:
 247 0016 C046     		.align	2
 248              	.L48:
 249 0018 40F00F40 		.word	1074786368
 250 001c C0F00F40 		.word	1074786496
 251              		.cfi_endproc
 252              	.LFE1:
 254              		.section	.text.LDD_SetClockConfiguration,"ax",%progbits
 255              		.align	2
 256              		.global	LDD_SetClockConfiguration
 257              		.code	16
 258              		.thumb_func
 260              	LDD_SetClockConfiguration:
 261              	.LFB2:
 155:../Generated_Code/PE_LDD.c **** 
 156:../Generated_Code/PE_LDD.c **** /*
 157:../Generated_Code/PE_LDD.c **** ** ===================================================================
 158:../Generated_Code/PE_LDD.c **** **     Method      :  Cpu_LDD_SetClockConfiguration (component MKL25Z128LK4)
 159:../Generated_Code/PE_LDD.c **** */
 160:../Generated_Code/PE_LDD.c **** /*!
 161:../Generated_Code/PE_LDD.c **** **     @brief
 162:../Generated_Code/PE_LDD.c **** **         Changes the clock configuration of all LDD components in a 
 163:../Generated_Code/PE_LDD.c **** **         project.
 164:../Generated_Code/PE_LDD.c **** **     @param
 165:../Generated_Code/PE_LDD.c **** **       ClockConfiguration - New CPU clock configuration changed by CPU SetClockConfiguration meth
 166:../Generated_Code/PE_LDD.c **** */
 167:../Generated_Code/PE_LDD.c **** /* ===================================================================*/
 168:../Generated_Code/PE_LDD.c **** void LDD_SetClockConfiguration(LDD_TClockConfiguration ClockConfiguration)
 169:../Generated_Code/PE_LDD.c **** {
 262              		.loc 1 169 0
 263              		.cfi_startproc
 264              	.LVL13:
 170:../Generated_Code/PE_LDD.c ****   (void)ClockConfiguration;            /*!< Parameter is not used, suppress unused argument warning
 171:../Generated_Code/PE_LDD.c ****   /* Just one clock configuration defined in CPU component. */
 172:../Generated_Code/PE_LDD.c **** }
 265              		.loc 1 172 0
 266              		@ sp needed for prologue
 267 0000 7047     		bx	lr
 268              		.cfi_endproc
 269              	.LFE2:
 271              		.global	PE_CpuClockConfigurations
 272              		.global	PE_LDD_DeviceDataList
 273 0002 C046     		.section	.rodata.PE_CpuClockConfigurations,"a",%progbits
 274              		.align	2
 277              	PE_CpuClockConfigurations:
 278 0000 00004001 		.word	20971520
 279 0004 00004001 		.word	20971520
 280 0008 00000000 		.word	0
 281 000c 00000000 		.word	0
 282 0010 00000000 		.word	0
 283 0014 00004001 		.word	20971520
 284 0018 00800000 		.word	32768
 285 001c 00000000 		.word	0
 286 0020 00000000 		.word	0
 287 0024 00800000 		.word	32768
 288              		.section	.bss.PE_LDD_DeviceDataList,"aw",%nobits
 289              		.align	2
 292              	PE_LDD_DeviceDataList:
 293 0000 00000000 		.space	12
 293      00000000 
 293      00000000 
 294              		.text
 295              	.Letext0:
 296              		.file 2 "C:/Freescale/CW MCU v10.7/MCU/ARM_GCC_Support/ewl/EWL_C/include/cstdint"
 297              		.file 3 "../Generated_Code/PE_Types.h"
 298              		.file 4 "../Generated_Code/Cpu.h"