   1              		.cpu cortex-m0
   2              		.fpu softvfp
   3              		.eabi_attribute 20, 1
   4              		.eabi_attribute 21, 1
   5              		.eabi_attribute 23, 3
   6              		.eabi_attribute 24, 1
   7              		.eabi_attribute 25, 1
   8              		.eabi_attribute 26, 1
   9              		.eabi_attribute 30, 2
  10              		.eabi_attribute 34, 0
  11              		.eabi_attribute 18, 4
  12              		.code	16
  13              		.file	"WAIT1.c"
  14              		.text
  15              	.Ltext0:
  16              		.cfi_sections	.debug_frame
  17              		.section	.text.WAIT1_Wait10Cycles,"ax",%progbits
  18              		.align	2
  19              		.global	WAIT1_Wait10Cycles
  20              		.code	16
  21              		.thumb_func
  23              	WAIT1_Wait10Cycles:
  24              	.LFB0:
  25              		.file 1 "../Generated_Code/WAIT1.c"
   1:../Generated_Code/WAIT1.c **** /** ###################################################################
   2:../Generated_Code/WAIT1.c **** **     THIS COMPONENT MODULE IS GENERATED BY THE TOOL. DO NOT MODIFY IT.
   3:../Generated_Code/WAIT1.c **** **     Filename    : WAIT1.c
   4:../Generated_Code/WAIT1.c **** **     Project     : ProcessorExpert
   5:../Generated_Code/WAIT1.c **** **     Processor   : MKL25Z128VLK4
   6:../Generated_Code/WAIT1.c **** **     Component   : Wait
   7:../Generated_Code/WAIT1.c **** **     Version     : Component 01.057, Driver 01.00, CPU db: 3.00.000
   8:../Generated_Code/WAIT1.c **** **     Compiler    : GNU C Compiler
   9:../Generated_Code/WAIT1.c **** **     Date/Time   : 2012-12-25, 17:10, # CodeGen: 10
  10:../Generated_Code/WAIT1.c **** **     Abstract    :
  11:../Generated_Code/WAIT1.c **** **
  12:../Generated_Code/WAIT1.c **** **     Settings    :
  13:../Generated_Code/WAIT1.c **** **
  14:../Generated_Code/WAIT1.c **** **     Contents    :
  15:../Generated_Code/WAIT1.c **** **         Wait10Cycles  - void WAIT1_Wait10Cycles(void);
  16:../Generated_Code/WAIT1.c **** **         Wait100Cycles - void WAIT1_Wait100Cycles(void);
  17:../Generated_Code/WAIT1.c **** **         WaitCycles    - void WAIT1_WaitCycles(word cycles);
  18:../Generated_Code/WAIT1.c **** **         Waitms        - void WAIT1_Waitms(word ms);
  19:../Generated_Code/WAIT1.c **** **         Waitus        - void WAIT1_Waitus(word us);
  20:../Generated_Code/WAIT1.c **** **         Waitns        - void WAIT1_Waitns(word ns);
  21:../Generated_Code/WAIT1.c **** **         WaitOSms      - void WAIT1_WaitOSms(void);
  22:../Generated_Code/WAIT1.c **** **
  23:../Generated_Code/WAIT1.c **** **     License   :  Open Source (LGPL)
  24:../Generated_Code/WAIT1.c **** **     Copyright : (c) Copyright Erich Styger, 2012, all rights reserved.
  25:../Generated_Code/WAIT1.c **** **     This an open source software implementing waiting routines using Processor Expert.
  26:../Generated_Code/WAIT1.c **** **     This is a free software and is opened for education,  research  and commercial developments 
  27:../Generated_Code/WAIT1.c **** **     * This is a free software and there is NO WARRANTY.
  28:../Generated_Code/WAIT1.c **** **     * No restriction on use. You can use, modify and redistribute it for personal, non-profit or
  29:../Generated_Code/WAIT1.c **** **     * Redistributions of source code must retain the above copyright notice.
  30:../Generated_Code/WAIT1.c **** ** ###################################################################*/
  31:../Generated_Code/WAIT1.c **** 
  32:../Generated_Code/WAIT1.c **** /* MODULE WAIT1. */
  33:../Generated_Code/WAIT1.c **** 
  34:../Generated_Code/WAIT1.c **** #include "WAIT1.h"
  35:../Generated_Code/WAIT1.c **** 
  36:../Generated_Code/WAIT1.c **** /* tell the compiler not to inline functions in this module, as they are timing critical */
  37:../Generated_Code/WAIT1.c **** 
  38:../Generated_Code/WAIT1.c **** /*
  39:../Generated_Code/WAIT1.c **** ** ===================================================================
  40:../Generated_Code/WAIT1.c **** **     Method      :  WAIT1_Wait10Cycles (component Wait)
  41:../Generated_Code/WAIT1.c **** **
  42:../Generated_Code/WAIT1.c **** **     Description :
  43:../Generated_Code/WAIT1.c **** **         Wait for approximately 10 CPU cycles.
  44:../Generated_Code/WAIT1.c **** **     Parameters  : None
  45:../Generated_Code/WAIT1.c **** **     Returns     : Nothing
  46:../Generated_Code/WAIT1.c **** ** ===================================================================
  47:../Generated_Code/WAIT1.c **** */
  48:../Generated_Code/WAIT1.c **** void WAIT1_Wait10Cycles(void)
  49:../Generated_Code/WAIT1.c **** {
  26              		.loc 1 49 0
  27              		.cfi_startproc
  50:../Generated_Code/WAIT1.c ****   /* This function will wait 10 CPU cycles (including call overhead). */
  51:../Generated_Code/WAIT1.c ****   /* NOTE: this is not really accurate, as not sure yet about the cycle counts. Assuming 1 cycle fo
  52:../Generated_Code/WAIT1.c ****   asm(
  28              		.loc 1 52 0
  29              	@ 52 "../Generated_Code/WAIT1.c" 1
  30 0000 C046     		nop 
  31 0002 C046     		nop 
  32 0004 C046     		nop 
  33 0006 C046     		nop 
  34 0008 C046     		nop 
  35 000a C046     		nop 
  36 000c C046     		nop 
  37 000e C046     		nop 
  38 0010 C046     		nop 
  39 0012 C046     		nop 
  40              		
  41              	@ 0 "" 2
  53:../Generated_Code/WAIT1.c ****    "nop \n\t"
  54:../Generated_Code/WAIT1.c ****    "nop \n\t"
  55:../Generated_Code/WAIT1.c ****    "nop \n\t"
  56:../Generated_Code/WAIT1.c ****    "nop \n\t"
  57:../Generated_Code/WAIT1.c ****    "nop \n\t"
  58:../Generated_Code/WAIT1.c ****    "nop \n\t"
  59:../Generated_Code/WAIT1.c ****    "nop \n\t"
  60:../Generated_Code/WAIT1.c ****    "nop \n\t"
  61:../Generated_Code/WAIT1.c ****    "nop \n\t"
  62:../Generated_Code/WAIT1.c ****    "nop \n\t"
  63:../Generated_Code/WAIT1.c ****   );
  64:../Generated_Code/WAIT1.c **** }
  42              		.loc 1 64 0
  43              		.code	16
  44              		@ sp needed for prologue
  45 0014 7047     		bx	lr
  46              		.cfi_endproc
  47              	.LFE0:
  49 0016 C046     		.section	.text.WAIT1_Wait100Cycles,"ax",%progbits
  50              		.align	2
  51              		.global	WAIT1_Wait100Cycles
  52              		.code	16
  53              		.thumb_func
  55              	WAIT1_Wait100Cycles:
  56              	.LFB1:
  65:../Generated_Code/WAIT1.c **** 
  66:../Generated_Code/WAIT1.c **** /*
  67:../Generated_Code/WAIT1.c **** ** ===================================================================
  68:../Generated_Code/WAIT1.c **** **     Method      :  WAIT1_Wait100Cycles (component Wait)
  69:../Generated_Code/WAIT1.c **** **
  70:../Generated_Code/WAIT1.c **** **     Description :
  71:../Generated_Code/WAIT1.c **** **         Wait for 100 CPU cycles.
  72:../Generated_Code/WAIT1.c **** **     Parameters  : None
  73:../Generated_Code/WAIT1.c **** **     Returns     : Nothing
  74:../Generated_Code/WAIT1.c **** ** ===================================================================
  75:../Generated_Code/WAIT1.c **** */
  76:../Generated_Code/WAIT1.c **** void WAIT1_Wait100Cycles(void)
  77:../Generated_Code/WAIT1.c **** {
  57              		.loc 1 77 0
  58              		.cfi_startproc
  59 0000 00B5     		push	{lr}
  60              	.LCFI0:
  61              		.cfi_def_cfa_offset 4
  62              		.cfi_offset 14, -4
  63 0002 83B0     		sub	sp, sp, #12
  64              	.LCFI1:
  65              		.cfi_def_cfa_offset 16
  78:../Generated_Code/WAIT1.c ****   /* This function will spend 100 CPU cycles (including call overhead). */
  79:../Generated_Code/WAIT1.c ****   volatile byte i;
  80:../Generated_Code/WAIT1.c ****   for(i=0; i<133; i++) {
  66              		.loc 1 80 0
  67 0004 6B46     		mov	r3, sp
  68 0006 0733     		add	r3, r3, #7
  69 0008 0022     		mov	r2, #0
  70 000a 1A70     		strb	r2, [r3]
  71              	.LVL0:
  72 000c 1878     		ldrb	r0, [r3]
  73              	.LVL1:
  74 000e 8428     		cmp	r0, #132
  75 0010 07D8     		bhi	.L2
  76              	.L5:
  81:../Generated_Code/WAIT1.c ****     /* NOTE: this is not really accurate, as not sure yet about the cycle counts. Assuming 0.75 cyc
  82:../Generated_Code/WAIT1.c ****     asm(
  77              		.loc 1 82 0
  78              	@ 82 "../Generated_Code/WAIT1.c" 1
  79 0012 C046     		nop 
  80              		
  81              	@ 0 "" 2
  80:../Generated_Code/WAIT1.c ****   for(i=0; i<133; i++) {
  82              		.loc 1 80 0
  83              		.code	16
  84 0014 1978     		ldrb	r1, [r3]
  85              	.LVL2:
  86 0016 0131     		add	r1, r1, #1
  87              	.LVL3:
  88 0018 CAB2     		uxtb	r2, r1
  89              	.LVL4:
  90 001a 1A70     		strb	r2, [r3]
  91 001c 1878     		ldrb	r0, [r3]
  92              	.LVL5:
  93 001e 8428     		cmp	r0, #132
  94 0020 F7D9     		bls	.L5
  95              	.L2:
  83:../Generated_Code/WAIT1.c ****      "nop \n\t"
  84:../Generated_Code/WAIT1.c ****     );
  85:../Generated_Code/WAIT1.c ****   } /* just something to wait, NOT the requested 100 cycles */
  86:../Generated_Code/WAIT1.c **** }
  96              		.loc 1 86 0
  97 0022 03B0     		add	sp, sp, #12
  98              		@ sp needed for prologue
  99 0024 00BD     		pop	{pc}
 100              		.cfi_endproc
 101              	.LFE1:
 103 0026 C046     		.section	.text.WAIT1_WaitCycles,"ax",%progbits
 104              		.align	2
 105              		.global	WAIT1_WaitCycles
 106              		.code	16
 107              		.thumb_func
 109              	WAIT1_WaitCycles:
 110              	.LFB2:
  87:../Generated_Code/WAIT1.c **** /*
  88:../Generated_Code/WAIT1.c **** ** ===================================================================
  89:../Generated_Code/WAIT1.c **** **     Method      :  WAIT1_WaitCycles (component Wait)
  90:../Generated_Code/WAIT1.c **** **
  91:../Generated_Code/WAIT1.c **** **     Description :
  92:../Generated_Code/WAIT1.c **** **         Wait for 100 CPU cycles.
  93:../Generated_Code/WAIT1.c **** **     Parameters  :
  94:../Generated_Code/WAIT1.c **** **         NAME            - DESCRIPTION
  95:../Generated_Code/WAIT1.c **** **         cycles          - The number of cycles to wait.
  96:../Generated_Code/WAIT1.c **** **     Returns     : Nothing
  97:../Generated_Code/WAIT1.c **** ** ===================================================================
  98:../Generated_Code/WAIT1.c **** */
  99:../Generated_Code/WAIT1.c **** void WAIT1_WaitCycles(word cycles)
 100:../Generated_Code/WAIT1.c **** {
 111              		.loc 1 100 0
 112              		.cfi_startproc
 113              	.LVL6:
 114 0000 00B5     		push	{lr}
 115              	.LCFI2:
 116              		.cfi_def_cfa_offset 4
 117              		.cfi_offset 14, -4
 118 0002 83B0     		sub	sp, sp, #12
 119              	.LCFI3:
 120              		.cfi_def_cfa_offset 16
 121 0004 6B46     		mov	r3, sp
 122 0006 0733     		add	r3, r3, #7
 123              	.LBB8:
 124              	.LBB9:
  80:../Generated_Code/WAIT1.c ****   for(i=0; i<133; i++) {
 125              		.loc 1 80 0
 126 0008 0021     		mov	r1, #0
 127              	.LBE9:
 128              	.LBE8:
 101:../Generated_Code/WAIT1.c ****   while(cycles > 100) {
 129              		.loc 1 101 0
 130 000a 6428     		cmp	r0, #100
 131 000c 0FD9     		bls	.L8
 132              	.LVL7:
 133              	.L15:
 134              	.LBB11:
 135              	.LBB10:
  80:../Generated_Code/WAIT1.c ****   for(i=0; i<133; i++) {
 136              		.loc 1 80 0
 137 000e 1970     		strb	r1, [r3]
 138              	.LVL8:
 139 0010 1A78     		ldrb	r2, [r3]
 140              	.LVL9:
 141 0012 842A     		cmp	r2, #132
 142 0014 07D8     		bhi	.L13
 143              	.L16:
  82:../Generated_Code/WAIT1.c ****     asm(
 144              		.loc 1 82 0
 145              	@ 82 "../Generated_Code/WAIT1.c" 1
 146 0016 C046     		nop 
 147              		
 148              	@ 0 "" 2
  80:../Generated_Code/WAIT1.c ****   for(i=0; i<133; i++) {
 149              		.loc 1 80 0
 150              		.code	16
 151 0018 1A78     		ldrb	r2, [r3]
 152 001a 0132     		add	r2, r2, #1
 153              	.LVL10:
 154 001c D2B2     		uxtb	r2, r2
 155              	.LVL11:
 156 001e 1A70     		strb	r2, [r3]
 157 0020 1A78     		ldrb	r2, [r3]
 158 0022 842A     		cmp	r2, #132
 159 0024 F7D9     		bls	.L16
 160              	.L13:
 161              	.LBE10:
 162              	.LBE11:
 102:../Generated_Code/WAIT1.c ****     WAIT1_Wait100Cycles();
 103:../Generated_Code/WAIT1.c ****     cycles -= 100;
 163              		.loc 1 103 0
 164 0026 6438     		sub	r0, r0, #100
 165 0028 80B2     		uxth	r0, r0
 166              	.LVL12:
 101:../Generated_Code/WAIT1.c ****   while(cycles > 100) {
 167              		.loc 1 101 0
 168 002a 6428     		cmp	r0, #100
 169 002c EFD8     		bhi	.L15
 170              	.LVL13:
 171              	.L8:
 104:../Generated_Code/WAIT1.c ****   }
 105:../Generated_Code/WAIT1.c **** }
 172              		.loc 1 105 0
 173 002e 03B0     		add	sp, sp, #12
 174              		@ sp needed for prologue
 175 0030 00BD     		pop	{pc}
 176              		.cfi_endproc
 177              	.LFE2:
 179 0032 C046     		.section	.text.WAIT1_Waitms,"ax",%progbits
 180              		.align	2
 181              		.global	WAIT1_Waitms
 182              		.code	16
 183              		.thumb_func
 185              	WAIT1_Waitms:
 186              	.LFB3:
 106:../Generated_Code/WAIT1.c **** 
 107:../Generated_Code/WAIT1.c **** /*
 108:../Generated_Code/WAIT1.c **** ** ===================================================================
 109:../Generated_Code/WAIT1.c **** **     Method      :  WAIT1_Waitms (component Wait)
 110:../Generated_Code/WAIT1.c **** **
 111:../Generated_Code/WAIT1.c **** **     Description :
 112:../Generated_Code/WAIT1.c **** **         Wait for a specified time in milliseconds.
 113:../Generated_Code/WAIT1.c **** **     Parameters  :
 114:../Generated_Code/WAIT1.c **** **         NAME            - DESCRIPTION
 115:../Generated_Code/WAIT1.c **** **         ms              - How many milliseconds the function has to
 116:../Generated_Code/WAIT1.c **** **                           wait
 117:../Generated_Code/WAIT1.c **** **     Returns     : Nothing
 118:../Generated_Code/WAIT1.c **** ** ===================================================================
 119:../Generated_Code/WAIT1.c **** */
 120:../Generated_Code/WAIT1.c **** void WAIT1_Waitms(word ms)
 121:../Generated_Code/WAIT1.c **** {
 187              		.loc 1 121 0
 188              		.cfi_startproc
 189              	.LVL14:
 190 0000 10B5     		push	{r4, lr}
 191              	.LCFI4:
 192              		.cfi_def_cfa_offset 8
 193              		.cfi_offset 4, -8
 194              		.cfi_offset 14, -4
 195 0002 82B0     		sub	sp, sp, #8
 196              	.LCFI5:
 197              		.cfi_def_cfa_offset 16
 198 0004 6B46     		mov	r3, sp
 199 0006 0733     		add	r3, r3, #7
 200              	.LBB12:
 201              	.LBB13:
 202              	.LBB14:
 203              	.LBB15:
  80:../Generated_Code/WAIT1.c ****   for(i=0; i<133; i++) {
 204              		.loc 1 80 0
 205 0008 0024     		mov	r4, #0
 206              	.LBE15:
 207              	.LBE14:
 208              	.LBE13:
 209              	.LBE12:
 122:../Generated_Code/WAIT1.c ****   /* we do not have Cpu_Delay100US() for Kinetis: using a different (not exact) method */
 123:../Generated_Code/WAIT1.c ****   while (ms>0) {
 210              		.loc 1 123 0
 211 000a 0028     		cmp	r0, #0
 212 000c 14D0     		beq	.L19
 213              	.LVL15:
 214              	.L28:
 121:../Generated_Code/WAIT1.c **** {
 215              		.loc 1 121 0
 216 000e 0921     		mov	r1, #9
 217              	.LVL16:
 218              	.L22:
 219              	.LBB19:
 220              	.LBB18:
 221              	.LBB17:
 222              	.LBB16:
  80:../Generated_Code/WAIT1.c ****   for(i=0; i<133; i++) {
 223              		.loc 1 80 0
 224 0010 1C70     		strb	r4, [r3]
 225              	.LVL17:
 226 0012 1A78     		ldrb	r2, [r3]
 227              	.LVL18:
 228 0014 842A     		cmp	r2, #132
 229 0016 07D8     		bhi	.L24
 230              	.L29:
  82:../Generated_Code/WAIT1.c ****     asm(
 231              		.loc 1 82 0
 232              	@ 82 "../Generated_Code/WAIT1.c" 1
 233 0018 C046     		nop 
 234              		
 235              	@ 0 "" 2
  80:../Generated_Code/WAIT1.c ****   for(i=0; i<133; i++) {
 236              		.loc 1 80 0
 237              		.code	16
 238 001a 1A78     		ldrb	r2, [r3]
 239 001c 0132     		add	r2, r2, #1
 240              	.LVL19:
 241 001e D2B2     		uxtb	r2, r2
 242              	.LVL20:
 243 0020 1A70     		strb	r2, [r3]
 244 0022 1A78     		ldrb	r2, [r3]
 245 0024 842A     		cmp	r2, #132
 246 0026 F7D9     		bls	.L29
 247              	.L24:
 248 0028 0139     		sub	r1, r1, #1
 249 002a 89B2     		uxth	r1, r1
 250              	.LBE16:
 251              	.LBE17:
 101:../Generated_Code/WAIT1.c ****   while(cycles > 100) {
 252              		.loc 1 101 0
 253 002c 0029     		cmp	r1, #0
 254 002e EFD1     		bne	.L22
 255              	.LBE18:
 256              	.LBE19:
 124:../Generated_Code/WAIT1.c ****     WAIT1_WaitCycles(1000);
 125:../Generated_Code/WAIT1.c ****     ms--;
 257              		.loc 1 125 0
 258 0030 0138     		sub	r0, r0, #1
 259 0032 80B2     		uxth	r0, r0
 260              	.LVL21:
 123:../Generated_Code/WAIT1.c ****   while (ms>0) {
 261              		.loc 1 123 0
 262 0034 0028     		cmp	r0, #0
 263 0036 EAD1     		bne	.L28
 264              	.LVL22:
 265              	.L19:
 126:../Generated_Code/WAIT1.c ****   }
 127:../Generated_Code/WAIT1.c **** }
 266              		.loc 1 127 0
 267 0038 02B0     		add	sp, sp, #8
 268              		@ sp needed for prologue
 269 003a 10BD     		pop	{r4, pc}
 270              		.cfi_endproc
 271              	.LFE3:
 273              		.text
 274              	.Letext0:
 275              		.file 2 "../Generated_Code/PE_Types.h"