   1              		.cpu cortex-m0
   2              		.fpu softvfp
   3              		.eabi_attribute 20, 1
   4              		.eabi_attribute 21, 1
   5              		.eabi_attribute 23, 3
   6              		.eabi_attribute 24, 1
   7              		.eabi_attribute 25, 1
   8              		.eabi_attribute 26, 1
   9              		.eabi_attribute 30, 6
  10              		.eabi_attribute 34, 0
  11              		.eabi_attribute 18, 4
  12              		.code	16
  13              		.file	"BitIoLdd5.c"
  14              		.text
  15              	.Ltext0:
  16              		.cfi_sections	.debug_frame
  17              		.section	.bss.DeviceDataPrv__DEFAULT_RTOS_ALLOC,"aw",%nobits
  18              		.align	2
  21              	DeviceDataPrv__DEFAULT_RTOS_ALLOC:
  22 0000 00000000 		.space	4
  23              		.section	.text.BitIoLdd5_Init,"ax",%progbits
  24              		.align	2
  25              		.global	BitIoLdd5_Init
  26              		.code	16
  27              		.thumb_func
  29              	BitIoLdd5_Init:
  30              	.LFB0:
  31              		.file 1 "../Generated_Code/BitIoLdd5.c"
   1:../Generated_Code/BitIoLdd5.c **** /** ###################################################################
   2:../Generated_Code/BitIoLdd5.c **** **     THIS COMPONENT MODULE IS GENERATED BY THE TOOL. DO NOT MODIFY IT.
   3:../Generated_Code/BitIoLdd5.c **** **     Filename    : BitIoLdd5.c
   4:../Generated_Code/BitIoLdd5.c **** **     Project     : ProcessorExpert
   5:../Generated_Code/BitIoLdd5.c **** **     Processor   : MKL25Z128VLK4
   6:../Generated_Code/BitIoLdd5.c **** **     Component   : BitIO_LDD
   7:../Generated_Code/BitIoLdd5.c **** **     Version     : Component 01.031, Driver 01.00, CPU db: 3.00.000
   8:../Generated_Code/BitIoLdd5.c **** **     Compiler    : GNU C Compiler
   9:../Generated_Code/BitIoLdd5.c **** **     Date/Time   : 2012-12-25, 18:56, # CodeGen: 13
  10:../Generated_Code/BitIoLdd5.c **** **     Abstract    :
  11:../Generated_Code/BitIoLdd5.c **** **         The HAL BitIO component provides a low level API for unified
  12:../Generated_Code/BitIoLdd5.c **** **         access to general purpose digital input/output pins across
  13:../Generated_Code/BitIoLdd5.c **** **         various device designs.
  14:../Generated_Code/BitIoLdd5.c **** **
  15:../Generated_Code/BitIoLdd5.c **** **         RTOS drivers using HAL BitIO API are simpler and more
  16:../Generated_Code/BitIoLdd5.c **** **         portable to various microprocessors.
  17:../Generated_Code/BitIoLdd5.c **** **     Settings    :
  18:../Generated_Code/BitIoLdd5.c **** **          Component name                                 : BitIoLdd5
  19:../Generated_Code/BitIoLdd5.c **** **          Pin for I/O                                    : TSI0_CH12/PTB19/TPM2_CH1
  20:../Generated_Code/BitIoLdd5.c **** **          Pin signal                                     : LED_GREEN
  21:../Generated_Code/BitIoLdd5.c **** **          Direction                                      : Output
  22:../Generated_Code/BitIoLdd5.c **** **          Initialization                                 : 
  23:../Generated_Code/BitIoLdd5.c **** **            Init. direction                              : Output
  24:../Generated_Code/BitIoLdd5.c **** **            Init. value                                  : 0
  25:../Generated_Code/BitIoLdd5.c **** **            Auto Initialization                          : yes
  26:../Generated_Code/BitIoLdd5.c **** **          Safe mode                                      : yes
  27:../Generated_Code/BitIoLdd5.c **** **     Contents    :
  28:../Generated_Code/BitIoLdd5.c **** **         Init   - LDD_TDeviceData* BitIoLdd5_Init(LDD_TUserData *UserDataPtr);
  29:../Generated_Code/BitIoLdd5.c **** **         GetVal - bool BitIoLdd5_GetVal(LDD_TDeviceData *DeviceDataPtr);
  30:../Generated_Code/BitIoLdd5.c **** **         ClrVal - void BitIoLdd5_ClrVal(LDD_TDeviceData *DeviceDataPtr);
  31:../Generated_Code/BitIoLdd5.c **** **         SetVal - void BitIoLdd5_SetVal(LDD_TDeviceData *DeviceDataPtr);
  32:../Generated_Code/BitIoLdd5.c **** **         NegVal - void BitIoLdd5_NegVal(LDD_TDeviceData *DeviceDataPtr);
  33:../Generated_Code/BitIoLdd5.c **** **
  34:../Generated_Code/BitIoLdd5.c **** **     Copyright : 1997 - 2012 Freescale, Inc. All Rights Reserved.
  35:../Generated_Code/BitIoLdd5.c **** **     
  36:../Generated_Code/BitIoLdd5.c **** **     http      : www.freescale.com
  37:../Generated_Code/BitIoLdd5.c **** **     mail      : support@freescale.com
  38:../Generated_Code/BitIoLdd5.c **** ** ###################################################################*/
  39:../Generated_Code/BitIoLdd5.c **** 
  40:../Generated_Code/BitIoLdd5.c **** /* MODULE BitIoLdd5. */
  41:../Generated_Code/BitIoLdd5.c **** 
  42:../Generated_Code/BitIoLdd5.c **** #include "BitIoLdd5.h"
  43:../Generated_Code/BitIoLdd5.c **** 
  44:../Generated_Code/BitIoLdd5.c **** typedef struct {
  45:../Generated_Code/BitIoLdd5.c ****   LDD_TUserData *UserDataPtr;          /* Pointer to user data */
  46:../Generated_Code/BitIoLdd5.c **** } BitIoLdd5_TDeviceData;               /* Device data structure type */
  47:../Generated_Code/BitIoLdd5.c **** 
  48:../Generated_Code/BitIoLdd5.c **** typedef BitIoLdd5_TDeviceData *BitIoLdd5_TDeviceDataPtr ; /* Pointer to the device data structure. 
  49:../Generated_Code/BitIoLdd5.c **** 
  50:../Generated_Code/BitIoLdd5.c **** /* {Default RTOS Adapter} Static object used for simulation of dynamic driver memory allocation */
  51:../Generated_Code/BitIoLdd5.c **** static BitIoLdd5_TDeviceData DeviceDataPrv__DEFAULT_RTOS_ALLOC;
  52:../Generated_Code/BitIoLdd5.c **** /*
  53:../Generated_Code/BitIoLdd5.c **** ** ===================================================================
  54:../Generated_Code/BitIoLdd5.c **** **     Method      :  BitIoLdd5_Init (component BitIO_LDD)
  55:../Generated_Code/BitIoLdd5.c **** **
  56:../Generated_Code/BitIoLdd5.c **** **     Description :
  57:../Generated_Code/BitIoLdd5.c **** **         Initializes the device. Allocates memory for the device data
  58:../Generated_Code/BitIoLdd5.c **** **         structure, allocates interrupt vectors and sets interrupt
  59:../Generated_Code/BitIoLdd5.c **** **         priority, sets pin routing, sets timing, etc. If the "Enable
  60:../Generated_Code/BitIoLdd5.c **** **         in init. code" is set to "yes" value then the device is also
  61:../Generated_Code/BitIoLdd5.c **** **         enabled(see the description of the Enable() method). In this
  62:../Generated_Code/BitIoLdd5.c **** **         case the Enable() method is not necessary and needn't to be
  63:../Generated_Code/BitIoLdd5.c **** **         generated. 
  64:../Generated_Code/BitIoLdd5.c **** **     Parameters  :
  65:../Generated_Code/BitIoLdd5.c **** **         NAME            - DESCRIPTION
  66:../Generated_Code/BitIoLdd5.c **** **       * UserDataPtr     - Pointer to the user or
  67:../Generated_Code/BitIoLdd5.c **** **                           RTOS specific data. This pointer will be
  68:../Generated_Code/BitIoLdd5.c **** **                           passed as an event or callback parameter.
  69:../Generated_Code/BitIoLdd5.c **** **     Returns     :
  70:../Generated_Code/BitIoLdd5.c **** **         ---             - Pointer to the dynamically allocated
  71:../Generated_Code/BitIoLdd5.c **** **                           private structure or NULL if there was an
  72:../Generated_Code/BitIoLdd5.c **** **                           error.
  73:../Generated_Code/BitIoLdd5.c **** ** ===================================================================
  74:../Generated_Code/BitIoLdd5.c **** */
  75:../Generated_Code/BitIoLdd5.c **** LDD_TDeviceData* BitIoLdd5_Init(LDD_TUserData *UserDataPtr)
  76:../Generated_Code/BitIoLdd5.c **** {
  32              		.loc 1 76 0
  33              		.cfi_startproc
  34 0000 80B5     		push	{r7, lr}
  35              	.LCFI0:
  36              		.cfi_def_cfa_offset 8
  37              		.cfi_offset 7, -8
  38              		.cfi_offset 14, -4
  39 0002 84B0     		sub	sp, sp, #16
  40              	.LCFI1:
  41              		.cfi_def_cfa_offset 24
  42 0004 00AF     		add	r7, sp, #0
  43              	.LCFI2:
  44              		.cfi_def_cfa_register 7
  45 0006 7860     		str	r0, [r7, #4]
  77:../Generated_Code/BitIoLdd5.c ****   /* Allocate device structure */
  78:../Generated_Code/BitIoLdd5.c ****   BitIoLdd5_TDeviceDataPtr DeviceDataPrv;
  79:../Generated_Code/BitIoLdd5.c ****   /* {Default RTOS Adapter} Driver memory allocation: Dynamic allocation is simulated by a pointer 
  80:../Generated_Code/BitIoLdd5.c ****   DeviceDataPrv = &DeviceDataPrv__DEFAULT_RTOS_ALLOC;
  46              		.loc 1 80 0
  47 0008 114B     		ldr	r3, .L3
  48 000a FB60     		str	r3, [r7, #12]
  81:../Generated_Code/BitIoLdd5.c **** 
  82:../Generated_Code/BitIoLdd5.c ****   DeviceDataPrv->UserDataPtr = UserDataPtr; /* Store the RTOS device structure */
  49              		.loc 1 82 0
  50 000c FB68     		ldr	r3, [r7, #12]
  51 000e 7A68     		ldr	r2, [r7, #4]
  52 0010 1A60     		str	r2, [r3]
  83:../Generated_Code/BitIoLdd5.c **** 
  84:../Generated_Code/BitIoLdd5.c ****   /* Configure pin as output */
  85:../Generated_Code/BitIoLdd5.c ****   /* GPIOB_PDDR: PDD|=0x00080000 */
  86:../Generated_Code/BitIoLdd5.c ****   GPIOB_PDDR |= GPIO_PDDR_PDD(0x00080000);                                                   
  53              		.loc 1 86 0
  54 0012 104B     		ldr	r3, .L3+4
  55 0014 0F4A     		ldr	r2, .L3+4
  56 0016 5269     		ldr	r2, [r2, #20]
  57 0018 8021     		mov	r1, #128
  58 001a 0903     		lsl	r1, r1, #12
  59 001c 0A43     		orr	r2, r1
  60 001e 5A61     		str	r2, [r3, #20]
  87:../Generated_Code/BitIoLdd5.c **** 
  88:../Generated_Code/BitIoLdd5.c ****   /* Set initialization value */
  89:../Generated_Code/BitIoLdd5.c ****   /* GPIOB_PDOR: PDO&=~0x00080000 */
  90:../Generated_Code/BitIoLdd5.c ****   GPIOB_PDOR &= (uint32_t)~(uint32_t)(GPIO_PDOR_PDO(0x00080000));                                  
  61              		.loc 1 90 0
  62 0020 0C4B     		ldr	r3, .L3+4
  63 0022 0C4A     		ldr	r2, .L3+4
  64 0024 1168     		ldr	r1, [r2]
  65 0026 0C4A     		ldr	r2, .L3+8
  66 0028 0A40     		and	r2, r1
  67 002a 1A60     		str	r2, [r3]
  91:../Generated_Code/BitIoLdd5.c **** 
  92:../Generated_Code/BitIoLdd5.c ****   /* Initialization of Port Control register */
  93:../Generated_Code/BitIoLdd5.c ****   /* PORTB_PCR19: ISF=0,MUX=1 */
  94:../Generated_Code/BitIoLdd5.c ****   PORTB_PCR19 = (uint32_t)((PORTB_PCR19 & (uint32_t)~(uint32_t)(
  68              		.loc 1 94 0
  69 002c 0B4B     		ldr	r3, .L3+12
  70 002e 0B4A     		ldr	r2, .L3+12
  71 0030 D16C     		ldr	r1, [r2, #76]
  72 0032 0B4A     		ldr	r2, .L3+16
  73 0034 0A40     		and	r2, r1
  74 0036 8021     		mov	r1, #128
  75 0038 4900     		lsl	r1, r1, #1
  76 003a 0A43     		orr	r2, r1
  77 003c DA64     		str	r2, [r3, #76]
  95:../Generated_Code/BitIoLdd5.c ****                  PORT_PCR_ISF_MASK |
  96:../Generated_Code/BitIoLdd5.c ****                  PORT_PCR_MUX(0x06)
  97:../Generated_Code/BitIoLdd5.c ****                 )) | (uint32_t)(
  98:../Generated_Code/BitIoLdd5.c ****                  PORT_PCR_MUX(0x01)
  99:../Generated_Code/BitIoLdd5.c ****                 ));                                                  
 100:../Generated_Code/BitIoLdd5.c ****   /* Registration of the device structure */
 101:../Generated_Code/BitIoLdd5.c ****   PE_LDD_RegisterDeviceStructure(PE_LDD_COMPONENT_BitIoLdd5_ID,DeviceDataPrv);
  78              		.loc 1 101 0
  79 003e 094B     		ldr	r3, .L3+20
  80 0040 FA68     		ldr	r2, [r7, #12]
  81 0042 5A60     		str	r2, [r3, #4]
 102:../Generated_Code/BitIoLdd5.c ****   return ((LDD_TDeviceData *)DeviceDataPrv);
  82              		.loc 1 102 0
  83 0044 FB68     		ldr	r3, [r7, #12]
 103:../Generated_Code/BitIoLdd5.c **** }
  84              		.loc 1 103 0
  85 0046 181C     		mov	r0, r3
  86 0048 BD46     		mov	sp, r7
  87 004a 04B0     		add	sp, sp, #16
  88              		@ sp needed for prologue
  89 004c 80BD     		pop	{r7, pc}
  90              	.L4:
  91 004e C046     		.align	2
  92              	.L3:
  93 0050 00000000 		.word	DeviceDataPrv__DEFAULT_RTOS_ALLOC
  94 0054 40F00F40 		.word	1074786368
  95 0058 FFFFF7FF 		.word	-524289
  96 005c 00A00440 		.word	1074044928
  97 0060 FFF8FFFE 		.word	-16779009
  98 0064 00000000 		.word	PE_LDD_DeviceDataList
  99              		.cfi_endproc
 100              	.LFE0:
 102              		.section	.text.BitIoLdd5_GetVal,"ax",%progbits
 103              		.align	2
 104              		.global	BitIoLdd5_GetVal
 105              		.code	16
 106              		.thumb_func
 108              	BitIoLdd5_GetVal:
 109              	.LFB1:
 104:../Generated_Code/BitIoLdd5.c **** /*
 105:../Generated_Code/BitIoLdd5.c **** ** ===================================================================
 106:../Generated_Code/BitIoLdd5.c **** **     Method      :  BitIoLdd5_GetVal (component BitIO_LDD)
 107:../Generated_Code/BitIoLdd5.c **** **
 108:../Generated_Code/BitIoLdd5.c **** **     Description :
 109:../Generated_Code/BitIoLdd5.c **** **         Returns the input/output value. If the direction is [input]
 110:../Generated_Code/BitIoLdd5.c **** **         then the input value of the pin is read and returned. If the
 111:../Generated_Code/BitIoLdd5.c **** **         direction is [output] then the last written value is read
 112:../Generated_Code/BitIoLdd5.c **** **         and returned (see <Safe mode> property for limitations).
 113:../Generated_Code/BitIoLdd5.c **** **         This method cannot be disabled if direction is [input].
 114:../Generated_Code/BitIoLdd5.c **** **     Parameters  :
 115:../Generated_Code/BitIoLdd5.c **** **         NAME            - DESCRIPTION
 116:../Generated_Code/BitIoLdd5.c **** **       * DeviceDataPtr   - Device data structure
 117:../Generated_Code/BitIoLdd5.c **** **                           pointer returned by <Init> method.
 118:../Generated_Code/BitIoLdd5.c **** **     Returns     :
 119:../Generated_Code/BitIoLdd5.c **** **         ---             - Input or output value. Possible values:
 120:../Generated_Code/BitIoLdd5.c **** **                           <false> - logical "0" (Low level)
 121:../Generated_Code/BitIoLdd5.c **** **                           <true> - logical "1" (High level)
 122:../Generated_Code/BitIoLdd5.c **** ** ===================================================================
 123:../Generated_Code/BitIoLdd5.c **** */
 124:../Generated_Code/BitIoLdd5.c **** bool BitIoLdd5_GetVal(LDD_TDeviceData *DeviceDataPtr)
 125:../Generated_Code/BitIoLdd5.c **** {
 110              		.loc 1 125 0
 111              		.cfi_startproc
 112 0000 80B5     		push	{r7, lr}
 113              	.LCFI3:
 114              		.cfi_def_cfa_offset 8
 115              		.cfi_offset 7, -8
 116              		.cfi_offset 14, -4
 117 0002 84B0     		sub	sp, sp, #16
 118              	.LCFI4:
 119              		.cfi_def_cfa_offset 24
 120 0004 00AF     		add	r7, sp, #0
 121              	.LCFI5:
 122              		.cfi_def_cfa_register 7
 123 0006 7860     		str	r0, [r7, #4]
 126:../Generated_Code/BitIoLdd5.c ****   uint32_t portData;                   /* Port data masked according to the bit used */
 127:../Generated_Code/BitIoLdd5.c **** 
 128:../Generated_Code/BitIoLdd5.c ****   (void)DeviceDataPtr;                 /* Parameter is not used, suppress unused argument warning *
 129:../Generated_Code/BitIoLdd5.c **** 
 130:../Generated_Code/BitIoLdd5.c ****   portData = GPIO_PDD_GetPortDataOutput(BitIoLdd5_MODULE_BASE_ADDRESS) & BitIoLdd5_PORT_MASK;
 124              		.loc 1 130 0
 125 0008 064B     		ldr	r3, .L7
 126 000a 1A68     		ldr	r2, [r3]
 127 000c 8023     		mov	r3, #128
 128 000e 1B03     		lsl	r3, r3, #12
 129 0010 1340     		and	r3, r2
 130 0012 FB60     		str	r3, [r7, #12]
 131:../Generated_Code/BitIoLdd5.c **** 
 132:../Generated_Code/BitIoLdd5.c ****   return (portData != 0U) ? (bool)TRUE : (bool)FALSE;
 131              		.loc 1 132 0
 132 0014 FB68     		ldr	r3, [r7, #12]
 133 0016 5A1E     		sub	r2, r3, #1
 134 0018 9341     		sbc	r3, r3, r2
 135 001a DBB2     		uxtb	r3, r3
 133:../Generated_Code/BitIoLdd5.c **** }
 136              		.loc 1 133 0
 137 001c 181C     		mov	r0, r3
 138 001e BD46     		mov	sp, r7
 139 0020 04B0     		add	sp, sp, #16
 140              		@ sp needed for prologue
 141 0022 80BD     		pop	{r7, pc}
 142              	.L8:
 143              		.align	2
 144              	.L7:
 145 0024 40F00FF8 		.word	-133173184
 146              		.cfi_endproc
 147              	.LFE1:
 149              		.section	.text.BitIoLdd5_ClrVal,"ax",%progbits
 150              		.align	2
 151              		.global	BitIoLdd5_ClrVal
 152              		.code	16
 153              		.thumb_func
 155              	BitIoLdd5_ClrVal:
 156              	.LFB2:
 134:../Generated_Code/BitIoLdd5.c **** 
 135:../Generated_Code/BitIoLdd5.c **** /*
 136:../Generated_Code/BitIoLdd5.c **** ** ===================================================================
 137:../Generated_Code/BitIoLdd5.c **** **     Method      :  BitIoLdd5_ClrVal (component BitIO_LDD)
 138:../Generated_Code/BitIoLdd5.c **** **
 139:../Generated_Code/BitIoLdd5.c **** **     Description :
 140:../Generated_Code/BitIoLdd5.c **** **         Clears (set to zero) the output value. It is equivalent to
 141:../Generated_Code/BitIoLdd5.c **** **         the [PutVal(FALSE)]. This method is available only if the
 142:../Generated_Code/BitIoLdd5.c **** **         direction = _[output]_ or _[input/output]_.
 143:../Generated_Code/BitIoLdd5.c **** **     Parameters  :
 144:../Generated_Code/BitIoLdd5.c **** **         NAME            - DESCRIPTION
 145:../Generated_Code/BitIoLdd5.c **** **       * DeviceDataPtr   - Pointer to device data
 146:../Generated_Code/BitIoLdd5.c **** **                           structure returned by <Init> method.
 147:../Generated_Code/BitIoLdd5.c **** **     Returns     : Nothing
 148:../Generated_Code/BitIoLdd5.c **** ** ===================================================================
 149:../Generated_Code/BitIoLdd5.c **** */
 150:../Generated_Code/BitIoLdd5.c **** void BitIoLdd5_ClrVal(LDD_TDeviceData *DeviceDataPtr)
 151:../Generated_Code/BitIoLdd5.c **** {
 157              		.loc 1 151 0
 158              		.cfi_startproc
 159 0000 80B5     		push	{r7, lr}
 160              	.LCFI6:
 161              		.cfi_def_cfa_offset 8
 162              		.cfi_offset 7, -8
 163              		.cfi_offset 14, -4
 164 0002 82B0     		sub	sp, sp, #8
 165              	.LCFI7:
 166              		.cfi_def_cfa_offset 16
 167 0004 00AF     		add	r7, sp, #0
 168              	.LCFI8:
 169              		.cfi_def_cfa_register 7
 170 0006 7860     		str	r0, [r7, #4]
 152:../Generated_Code/BitIoLdd5.c ****   (void)DeviceDataPtr;                 /* Parameter is not used, suppress unused argument warning *
 153:../Generated_Code/BitIoLdd5.c **** 
 154:../Generated_Code/BitIoLdd5.c ****   GPIO_PDD_ClearPortDataOutputMask(BitIoLdd5_MODULE_BASE_ADDRESS, BitIoLdd5_PORT_MASK);
 171              		.loc 1 154 0
 172 0008 034B     		ldr	r3, .L10
 173 000a 8022     		mov	r2, #128
 174 000c 1203     		lsl	r2, r2, #12
 175 000e 9A60     		str	r2, [r3, #8]
 155:../Generated_Code/BitIoLdd5.c **** }
 176              		.loc 1 155 0
 177 0010 BD46     		mov	sp, r7
 178 0012 02B0     		add	sp, sp, #8
 179              		@ sp needed for prologue
 180 0014 80BD     		pop	{r7, pc}
 181              	.L11:
 182 0016 C046     		.align	2
 183              	.L10:
 184 0018 40F00FF8 		.word	-133173184
 185              		.cfi_endproc
 186              	.LFE2:
 188              		.section	.text.BitIoLdd5_SetVal,"ax",%progbits
 189              		.align	2
 190              		.global	BitIoLdd5_SetVal
 191              		.code	16
 192              		.thumb_func
 194              	BitIoLdd5_SetVal:
 195              	.LFB3:
 156:../Generated_Code/BitIoLdd5.c **** 
 157:../Generated_Code/BitIoLdd5.c **** /*
 158:../Generated_Code/BitIoLdd5.c **** ** ===================================================================
 159:../Generated_Code/BitIoLdd5.c **** **     Method      :  BitIoLdd5_SetVal (component BitIO_LDD)
 160:../Generated_Code/BitIoLdd5.c **** **
 161:../Generated_Code/BitIoLdd5.c **** **     Description :
 162:../Generated_Code/BitIoLdd5.c **** **         Sets (to one) the output value. It is equivalent to the
 163:../Generated_Code/BitIoLdd5.c **** **         [PutVal(TRUE)]. This method is available only if the
 164:../Generated_Code/BitIoLdd5.c **** **         direction = _[output]_ or _[input/output]_.
 165:../Generated_Code/BitIoLdd5.c **** **     Parameters  :
 166:../Generated_Code/BitIoLdd5.c **** **         NAME            - DESCRIPTION
 167:../Generated_Code/BitIoLdd5.c **** **       * DeviceDataPtr   - Pointer to device data
 168:../Generated_Code/BitIoLdd5.c **** **                           structure returned by <Init> method.
 169:../Generated_Code/BitIoLdd5.c **** **     Returns     : Nothing
 170:../Generated_Code/BitIoLdd5.c **** ** ===================================================================
 171:../Generated_Code/BitIoLdd5.c **** */
 172:../Generated_Code/BitIoLdd5.c **** void BitIoLdd5_SetVal(LDD_TDeviceData *DeviceDataPtr)
 173:../Generated_Code/BitIoLdd5.c **** {
 196              		.loc 1 173 0
 197              		.cfi_startproc
 198 0000 80B5     		push	{r7, lr}
 199              	.LCFI9:
 200              		.cfi_def_cfa_offset 8
 201              		.cfi_offset 7, -8
 202              		.cfi_offset 14, -4
 203 0002 82B0     		sub	sp, sp, #8
 204              	.LCFI10:
 205              		.cfi_def_cfa_offset 16
 206 0004 00AF     		add	r7, sp, #0
 207              	.LCFI11:
 208              		.cfi_def_cfa_register 7
 209 0006 7860     		str	r0, [r7, #4]
 174:../Generated_Code/BitIoLdd5.c ****   (void)DeviceDataPtr;                 /* Parameter is not used, suppress unused argument warning *
 175:../Generated_Code/BitIoLdd5.c **** 
 176:../Generated_Code/BitIoLdd5.c ****   GPIO_PDD_SetPortDataOutputMask(BitIoLdd5_MODULE_BASE_ADDRESS, BitIoLdd5_PORT_MASK);
 210              		.loc 1 176 0
 211 0008 034B     		ldr	r3, .L13
 212 000a 8022     		mov	r2, #128
 213 000c 1203     		lsl	r2, r2, #12
 214 000e 5A60     		str	r2, [r3, #4]
 177:../Generated_Code/BitIoLdd5.c **** }
 215              		.loc 1 177 0
 216 0010 BD46     		mov	sp, r7
 217 0012 02B0     		add	sp, sp, #8
 218              		@ sp needed for prologue
 219 0014 80BD     		pop	{r7, pc}
 220              	.L14:
 221 0016 C046     		.align	2
 222              	.L13:
 223 0018 40F00FF8 		.word	-133173184
 224              		.cfi_endproc
 225              	.LFE3:
 227              		.section	.text.BitIoLdd5_NegVal,"ax",%progbits
 228              		.align	2
 229              		.global	BitIoLdd5_NegVal
 230              		.code	16
 231              		.thumb_func
 233              	BitIoLdd5_NegVal:
 234              	.LFB4:
 178:../Generated_Code/BitIoLdd5.c **** 
 179:../Generated_Code/BitIoLdd5.c **** /*
 180:../Generated_Code/BitIoLdd5.c **** ** ===================================================================
 181:../Generated_Code/BitIoLdd5.c **** **     Method      :  BitIoLdd5_NegVal (component BitIO_LDD)
 182:../Generated_Code/BitIoLdd5.c **** **
 183:../Generated_Code/BitIoLdd5.c **** **     Description :
 184:../Generated_Code/BitIoLdd5.c **** **         Negates (inverts) the output value. It is equivalent to the
 185:../Generated_Code/BitIoLdd5.c **** **         [PutVal(!GetVal())]. This method is available only if the
 186:../Generated_Code/BitIoLdd5.c **** **         direction = _[output]_ or _[input/output]_.
 187:../Generated_Code/BitIoLdd5.c **** **     Parameters  :
 188:../Generated_Code/BitIoLdd5.c **** **         NAME            - DESCRIPTION
 189:../Generated_Code/BitIoLdd5.c **** **       * DeviceDataPtr   - Pointer to device data
 190:../Generated_Code/BitIoLdd5.c **** **                           structure returned by <Init> method.
 191:../Generated_Code/BitIoLdd5.c **** **     Returns     : Nothing
 192:../Generated_Code/BitIoLdd5.c **** ** ===================================================================
 193:../Generated_Code/BitIoLdd5.c **** */
 194:../Generated_Code/BitIoLdd5.c **** void BitIoLdd5_NegVal(LDD_TDeviceData *DeviceDataPtr)
 195:../Generated_Code/BitIoLdd5.c **** {
 235              		.loc 1 195 0
 236              		.cfi_startproc
 237 0000 80B5     		push	{r7, lr}
 238              	.LCFI12:
 239              		.cfi_def_cfa_offset 8
 240              		.cfi_offset 7, -8
 241              		.cfi_offset 14, -4
 242 0002 82B0     		sub	sp, sp, #8
 243              	.LCFI13:
 244              		.cfi_def_cfa_offset 16
 245 0004 00AF     		add	r7, sp, #0
 246              	.LCFI14:
 247              		.cfi_def_cfa_register 7
 248 0006 7860     		str	r0, [r7, #4]
 196:../Generated_Code/BitIoLdd5.c ****   (void)DeviceDataPtr;                 /* Parameter is not used, suppress unused argument warning *
 197:../Generated_Code/BitIoLdd5.c **** 
 198:../Generated_Code/BitIoLdd5.c ****   GPIO_PDD_TogglePortDataOutputMask(BitIoLdd5_MODULE_BASE_ADDRESS, BitIoLdd5_PORT_MASK);
 249              		.loc 1 198 0
 250 0008 034B     		ldr	r3, .L16
 251 000a 8022     		mov	r2, #128
 252 000c 1203     		lsl	r2, r2, #12
 253 000e DA60     		str	r2, [r3, #12]
 199:../Generated_Code/BitIoLdd5.c **** }
 254              		.loc 1 199 0
 255 0010 BD46     		mov	sp, r7
 256 0012 02B0     		add	sp, sp, #8
 257              		@ sp needed for prologue
 258 0014 80BD     		pop	{r7, pc}
 259              	.L17:
 260 0016 C046     		.align	2
 261              	.L16:
 262 0018 40F00FF8 		.word	-133173184
 263              		.cfi_endproc
 264              	.LFE4:
 266              		.text
 267              	.Letext0:
 268              		.file 2 "C:/Freescale/CW MCU v10.7/MCU/ARM_GCC_Support/ewl/EWL_C/include/cstdint"
 269              		.file 3 "../Generated_Code/PE_Types.h"
 270              		.file 4 "../Generated_Code/IO_Map.h"
 271              		.file 5 "../Generated_Code/PE_LDD.h"