   1              		.cpu cortex-m0
   2              		.fpu softvfp
   3              		.eabi_attribute 20, 1
   4              		.eabi_attribute 21, 1
   5              		.eabi_attribute 23, 3
   6              		.eabi_attribute 24, 1
   7              		.eabi_attribute 25, 1
   8              		.eabi_attribute 26, 1
   9              		.eabi_attribute 30, 6
  10              		.eabi_attribute 34, 0
  11              		.eabi_attribute 18, 4
  12              		.code	16
  13              		.file	"BitIoLdd5.c"
  14              		.text
  15              	.Ltext0:
  16              		.cfi_sections	.debug_frame
  17              		.section	.bss.DeviceDataPrv__DEFAULT_RTOS_ALLOC,"aw",%nobits
  18              		.align	2
  21              	DeviceDataPrv__DEFAULT_RTOS_ALLOC:
  22 0000 00000000 		.space	4
  23              		.section	.text.BitIoLdd5_Init,"ax",%progbits
  24              		.align	2
  25              		.global	BitIoLdd5_Init
  26              		.code	16
  27              		.thumb_func
  29              	BitIoLdd5_Init:
  30              	.LFB0:
  31              		.file 1 "../Generated_Code/BitIoLdd5.c"
   1:../Generated_Code/BitIoLdd5.c **** /* ###################################################################
   2:../Generated_Code/BitIoLdd5.c **** **     This component module is generated by Processor Expert. Do not modify it.
   3:../Generated_Code/BitIoLdd5.c **** **     Filename    : BitIoLdd5.c
   4:../Generated_Code/BitIoLdd5.c **** **     Project     : ProcessorExpert
   5:../Generated_Code/BitIoLdd5.c **** **     Processor   : MKL25Z128VLK4
   6:../Generated_Code/BitIoLdd5.c **** **     Component   : BitIO_LDD
   7:../Generated_Code/BitIoLdd5.c **** **     Version     : Component 01.033, Driver 01.03, CPU db: 3.00.000
   8:../Generated_Code/BitIoLdd5.c **** **     Compiler    : GNU C Compiler
   9:../Generated_Code/BitIoLdd5.c **** **     Date/Time   : 2017-12-17, 19:56, # CodeGen: 44
  10:../Generated_Code/BitIoLdd5.c **** **     Abstract    :
  11:../Generated_Code/BitIoLdd5.c **** **         The HAL BitIO component provides a low level API for unified
  12:../Generated_Code/BitIoLdd5.c **** **         access to general purpose digital input/output pins across
  13:../Generated_Code/BitIoLdd5.c **** **         various device designs.
  14:../Generated_Code/BitIoLdd5.c **** **
  15:../Generated_Code/BitIoLdd5.c **** **         RTOS drivers using HAL BitIO API are simpler and more
  16:../Generated_Code/BitIoLdd5.c **** **         portable to various microprocessors.
  17:../Generated_Code/BitIoLdd5.c **** **     Settings    :
  18:../Generated_Code/BitIoLdd5.c **** **          Component name                                 : BitIoLdd5
  19:../Generated_Code/BitIoLdd5.c **** **          Pin for I/O                                    : PTA13/TPM1_CH1
  20:../Generated_Code/BitIoLdd5.c **** **          Pin signal                                     : RS_D8
  21:../Generated_Code/BitIoLdd5.c **** **          Direction                                      : Output
  22:../Generated_Code/BitIoLdd5.c **** **          Initialization                                 : 
  23:../Generated_Code/BitIoLdd5.c **** **            Init. direction                              : Output
  24:../Generated_Code/BitIoLdd5.c **** **            Init. value                                  : 0
  25:../Generated_Code/BitIoLdd5.c **** **            Auto initialization                          : yes
  26:../Generated_Code/BitIoLdd5.c **** **          Safe mode                                      : yes
  27:../Generated_Code/BitIoLdd5.c **** **     Contents    :
  28:../Generated_Code/BitIoLdd5.c **** **         Init   - LDD_TDeviceData* BitIoLdd5_Init(LDD_TUserData *UserDataPtr);
  29:../Generated_Code/BitIoLdd5.c **** **         ClrVal - void BitIoLdd5_ClrVal(LDD_TDeviceData *DeviceDataPtr);
  30:../Generated_Code/BitIoLdd5.c **** **         SetVal - void BitIoLdd5_SetVal(LDD_TDeviceData *DeviceDataPtr);
  31:../Generated_Code/BitIoLdd5.c **** **
  32:../Generated_Code/BitIoLdd5.c **** **     Copyright : 1997 - 2014 Freescale Semiconductor, Inc. 
  33:../Generated_Code/BitIoLdd5.c **** **     All Rights Reserved.
  34:../Generated_Code/BitIoLdd5.c **** **     
  35:../Generated_Code/BitIoLdd5.c **** **     Redistribution and use in source and binary forms, with or without modification,
  36:../Generated_Code/BitIoLdd5.c **** **     are permitted provided that the following conditions are met:
  37:../Generated_Code/BitIoLdd5.c **** **     
  38:../Generated_Code/BitIoLdd5.c **** **     o Redistributions of source code must retain the above copyright notice, this list
  39:../Generated_Code/BitIoLdd5.c **** **       of conditions and the following disclaimer.
  40:../Generated_Code/BitIoLdd5.c **** **     
  41:../Generated_Code/BitIoLdd5.c **** **     o Redistributions in binary form must reproduce the above copyright notice, this
  42:../Generated_Code/BitIoLdd5.c **** **       list of conditions and the following disclaimer in the documentation and/or
  43:../Generated_Code/BitIoLdd5.c **** **       other materials provided with the distribution.
  44:../Generated_Code/BitIoLdd5.c **** **     
  45:../Generated_Code/BitIoLdd5.c **** **     o Neither the name of Freescale Semiconductor, Inc. nor the names of its
  46:../Generated_Code/BitIoLdd5.c **** **       contributors may be used to endorse or promote products derived from this
  47:../Generated_Code/BitIoLdd5.c **** **       software without specific prior written permission.
  48:../Generated_Code/BitIoLdd5.c **** **     
  49:../Generated_Code/BitIoLdd5.c **** **     THIS SOFTWARE IS PROVIDED BY THE COPYRIGHT HOLDERS AND CONTRIBUTORS "AS IS" AND
  50:../Generated_Code/BitIoLdd5.c **** **     ANY EXPRESS OR IMPLIED WARRANTIES, INCLUDING, BUT NOT LIMITED TO, THE IMPLIED
  51:../Generated_Code/BitIoLdd5.c **** **     WARRANTIES OF MERCHANTABILITY AND FITNESS FOR A PARTICULAR PURPOSE ARE
  52:../Generated_Code/BitIoLdd5.c **** **     DISCLAIMED. IN NO EVENT SHALL THE COPYRIGHT HOLDER OR CONTRIBUTORS BE LIABLE FOR
  53:../Generated_Code/BitIoLdd5.c **** **     ANY DIRECT, INDIRECT, INCIDENTAL, SPECIAL, EXEMPLARY, OR CONSEQUENTIAL DAMAGES
  54:../Generated_Code/BitIoLdd5.c **** **     (INCLUDING, BUT NOT LIMITED TO, PROCUREMENT OF SUBSTITUTE GOODS OR SERVICES;
  55:../Generated_Code/BitIoLdd5.c **** **     LOSS OF USE, DATA, OR PROFITS; OR BUSINESS INTERRUPTION) HOWEVER CAUSED AND ON
  56:../Generated_Code/BitIoLdd5.c **** **     ANY THEORY OF LIABILITY, WHETHER IN CONTRACT, STRICT LIABILITY, OR TORT
  57:../Generated_Code/BitIoLdd5.c **** **     (INCLUDING NEGLIGENCE OR OTHERWISE) ARISING IN ANY WAY OUT OF THE USE OF THIS
  58:../Generated_Code/BitIoLdd5.c **** **     SOFTWARE, EVEN IF ADVISED OF THE POSSIBILITY OF SUCH DAMAGE.
  59:../Generated_Code/BitIoLdd5.c **** **     
  60:../Generated_Code/BitIoLdd5.c **** **     http: www.freescale.com
  61:../Generated_Code/BitIoLdd5.c **** **     mail: support@freescale.com
  62:../Generated_Code/BitIoLdd5.c **** ** ###################################################################*/
  63:../Generated_Code/BitIoLdd5.c **** /*!
  64:../Generated_Code/BitIoLdd5.c **** ** @file BitIoLdd5.c
  65:../Generated_Code/BitIoLdd5.c **** ** @version 01.03
  66:../Generated_Code/BitIoLdd5.c **** ** @brief
  67:../Generated_Code/BitIoLdd5.c **** **         The HAL BitIO component provides a low level API for unified
  68:../Generated_Code/BitIoLdd5.c **** **         access to general purpose digital input/output pins across
  69:../Generated_Code/BitIoLdd5.c **** **         various device designs.
  70:../Generated_Code/BitIoLdd5.c **** **
  71:../Generated_Code/BitIoLdd5.c **** **         RTOS drivers using HAL BitIO API are simpler and more
  72:../Generated_Code/BitIoLdd5.c **** **         portable to various microprocessors.
  73:../Generated_Code/BitIoLdd5.c **** */         
  74:../Generated_Code/BitIoLdd5.c **** /*!
  75:../Generated_Code/BitIoLdd5.c **** **  @addtogroup BitIoLdd5_module BitIoLdd5 module documentation
  76:../Generated_Code/BitIoLdd5.c **** **  @{
  77:../Generated_Code/BitIoLdd5.c **** */         
  78:../Generated_Code/BitIoLdd5.c **** 
  79:../Generated_Code/BitIoLdd5.c **** /* MODULE BitIoLdd5. */
  80:../Generated_Code/BitIoLdd5.c **** 
  81:../Generated_Code/BitIoLdd5.c **** /* {Default RTOS Adapter} No RTOS includes */
  82:../Generated_Code/BitIoLdd5.c **** #include "BitIoLdd5.h"
  83:../Generated_Code/BitIoLdd5.c **** 
  84:../Generated_Code/BitIoLdd5.c **** #ifdef __cplusplus
  85:../Generated_Code/BitIoLdd5.c **** extern "C" {
  86:../Generated_Code/BitIoLdd5.c **** #endif 
  87:../Generated_Code/BitIoLdd5.c **** 
  88:../Generated_Code/BitIoLdd5.c **** typedef struct {
  89:../Generated_Code/BitIoLdd5.c ****   LDD_TUserData *UserDataPtr;          /* Pointer to user data */
  90:../Generated_Code/BitIoLdd5.c **** } BitIoLdd5_TDeviceData;               /* Device data structure type */
  91:../Generated_Code/BitIoLdd5.c **** 
  92:../Generated_Code/BitIoLdd5.c **** typedef BitIoLdd5_TDeviceData *BitIoLdd5_TDeviceDataPtr ; /* Pointer to the device data structure. 
  93:../Generated_Code/BitIoLdd5.c **** 
  94:../Generated_Code/BitIoLdd5.c **** /* {Default RTOS Adapter} Static object used for simulation of dynamic driver memory allocation */
  95:../Generated_Code/BitIoLdd5.c **** static BitIoLdd5_TDeviceData DeviceDataPrv__DEFAULT_RTOS_ALLOC;
  96:../Generated_Code/BitIoLdd5.c **** /*
  97:../Generated_Code/BitIoLdd5.c **** ** ===================================================================
  98:../Generated_Code/BitIoLdd5.c **** **     Method      :  BitIoLdd5_Init (component BitIO_LDD)
  99:../Generated_Code/BitIoLdd5.c **** */
 100:../Generated_Code/BitIoLdd5.c **** /*!
 101:../Generated_Code/BitIoLdd5.c **** **     @brief
 102:../Generated_Code/BitIoLdd5.c **** **         Initializes the device. Allocates memory for the device data
 103:../Generated_Code/BitIoLdd5.c **** **         structure, allocates interrupt vectors and sets interrupt
 104:../Generated_Code/BitIoLdd5.c **** **         priority, sets pin routing, sets timing, etc. If the "Enable
 105:../Generated_Code/BitIoLdd5.c **** **         in init. code" is set to "yes" value then the device is also
 106:../Generated_Code/BitIoLdd5.c **** **         enabled(see the description of the Enable() method). In this
 107:../Generated_Code/BitIoLdd5.c **** **         case the Enable() method is not necessary and needn't to be
 108:../Generated_Code/BitIoLdd5.c **** **         generated. 
 109:../Generated_Code/BitIoLdd5.c **** **     @param
 110:../Generated_Code/BitIoLdd5.c **** **         UserDataPtr     - Pointer to the user or
 111:../Generated_Code/BitIoLdd5.c **** **                           RTOS specific data. This pointer will be
 112:../Generated_Code/BitIoLdd5.c **** **                           passed as an event or callback parameter.
 113:../Generated_Code/BitIoLdd5.c **** **     @return
 114:../Generated_Code/BitIoLdd5.c **** **                         - Pointer to the dynamically allocated private
 115:../Generated_Code/BitIoLdd5.c **** **                           structure or NULL if there was an error.
 116:../Generated_Code/BitIoLdd5.c **** */
 117:../Generated_Code/BitIoLdd5.c **** /* ===================================================================*/
 118:../Generated_Code/BitIoLdd5.c **** LDD_TDeviceData* BitIoLdd5_Init(LDD_TUserData *UserDataPtr)
 119:../Generated_Code/BitIoLdd5.c **** {
  32              		.loc 1 119 0
  33              		.cfi_startproc
  34 0000 80B5     		push	{r7, lr}
  35              	.LCFI0:
  36              		.cfi_def_cfa_offset 8
  37              		.cfi_offset 7, -8
  38              		.cfi_offset 14, -4
  39 0002 84B0     		sub	sp, sp, #16
  40              	.LCFI1:
  41              		.cfi_def_cfa_offset 24
  42 0004 00AF     		add	r7, sp, #0
  43              	.LCFI2:
  44              		.cfi_def_cfa_register 7
  45 0006 7860     		str	r0, [r7, #4]
 120:../Generated_Code/BitIoLdd5.c ****   /* Allocate device structure */
 121:../Generated_Code/BitIoLdd5.c ****   BitIoLdd5_TDeviceDataPtr DeviceDataPrv;
 122:../Generated_Code/BitIoLdd5.c **** 
 123:../Generated_Code/BitIoLdd5.c ****   /* {Default RTOS Adapter} Driver memory allocation: Dynamic allocation is simulated by a pointer 
 124:../Generated_Code/BitIoLdd5.c ****   DeviceDataPrv = &DeviceDataPrv__DEFAULT_RTOS_ALLOC;
  46              		.loc 1 124 0
  47 0008 114B     		ldr	r3, .L3
  48 000a FB60     		str	r3, [r7, #12]
 125:../Generated_Code/BitIoLdd5.c ****   DeviceDataPrv->UserDataPtr = UserDataPtr; /* Store the RTOS device structure */
  49              		.loc 1 125 0
  50 000c FB68     		ldr	r3, [r7, #12]
  51 000e 7A68     		ldr	r2, [r7, #4]
  52 0010 1A60     		str	r2, [r3]
 126:../Generated_Code/BitIoLdd5.c ****   /* Configure pin as output */
 127:../Generated_Code/BitIoLdd5.c ****   /* GPIOA_PDDR: PDD|=0x2000 */
 128:../Generated_Code/BitIoLdd5.c ****   GPIOA_PDDR |= GPIO_PDDR_PDD(0x2000);
  53              		.loc 1 128 0
  54 0012 104B     		ldr	r3, .L3+4
  55 0014 0F4A     		ldr	r2, .L3+4
  56 0016 5269     		ldr	r2, [r2, #20]
  57 0018 8021     		mov	r1, #128
  58 001a 8901     		lsl	r1, r1, #6
  59 001c 0A43     		orr	r2, r1
  60 001e 5A61     		str	r2, [r3, #20]
 129:../Generated_Code/BitIoLdd5.c ****   /* Set initialization value */
 130:../Generated_Code/BitIoLdd5.c ****   /* GPIOA_PDOR: PDO&=~0x2000 */
 131:../Generated_Code/BitIoLdd5.c ****   GPIOA_PDOR &= (uint32_t)~(uint32_t)(GPIO_PDOR_PDO(0x2000));
  61              		.loc 1 131 0
  62 0020 0C4B     		ldr	r3, .L3+4
  63 0022 0C4A     		ldr	r2, .L3+4
  64 0024 1168     		ldr	r1, [r2]
  65 0026 0C4A     		ldr	r2, .L3+8
  66 0028 0A40     		and	r2, r1
  67 002a 1A60     		str	r2, [r3]
 132:../Generated_Code/BitIoLdd5.c ****   /* Initialization of Port Control register */
 133:../Generated_Code/BitIoLdd5.c ****   /* PORTA_PCR13: ISF=0,MUX=1 */
 134:../Generated_Code/BitIoLdd5.c ****   PORTA_PCR13 = (uint32_t)((PORTA_PCR13 & (uint32_t)~(uint32_t)(
  68              		.loc 1 134 0
  69 002c 0B4B     		ldr	r3, .L3+12
  70 002e 0B4A     		ldr	r2, .L3+12
  71 0030 516B     		ldr	r1, [r2, #52]
  72 0032 0B4A     		ldr	r2, .L3+16
  73 0034 0A40     		and	r2, r1
  74 0036 8021     		mov	r1, #128
  75 0038 4900     		lsl	r1, r1, #1
  76 003a 0A43     		orr	r2, r1
  77 003c 5A63     		str	r2, [r3, #52]
 135:../Generated_Code/BitIoLdd5.c ****                  PORT_PCR_ISF_MASK |
 136:../Generated_Code/BitIoLdd5.c ****                  PORT_PCR_MUX(0x06)
 137:../Generated_Code/BitIoLdd5.c ****                 )) | (uint32_t)(
 138:../Generated_Code/BitIoLdd5.c ****                  PORT_PCR_MUX(0x01)
 139:../Generated_Code/BitIoLdd5.c ****                 ));
 140:../Generated_Code/BitIoLdd5.c ****   /* Registration of the device structure */
 141:../Generated_Code/BitIoLdd5.c ****   PE_LDD_RegisterDeviceStructure(PE_LDD_COMPONENT_BitIoLdd5_ID,DeviceDataPrv);
  78              		.loc 1 141 0
  79 003e 094B     		ldr	r3, .L3+20
  80 0040 FA68     		ldr	r2, [r7, #12]
  81 0042 DA61     		str	r2, [r3, #28]
 142:../Generated_Code/BitIoLdd5.c ****   return ((LDD_TDeviceData *)DeviceDataPrv);
  82              		.loc 1 142 0
  83 0044 FB68     		ldr	r3, [r7, #12]
 143:../Generated_Code/BitIoLdd5.c **** }
  84              		.loc 1 143 0
  85 0046 181C     		mov	r0, r3
  86 0048 BD46     		mov	sp, r7
  87 004a 04B0     		add	sp, sp, #16
  88              		@ sp needed for prologue
  89 004c 80BD     		pop	{r7, pc}
  90              	.L4:
  91 004e C046     		.align	2
  92              	.L3:
  93 0050 00000000 		.word	DeviceDataPrv__DEFAULT_RTOS_ALLOC
  94 0054 00F00F40 		.word	1074786304
  95 0058 FFDFFFFF 		.word	-8193
  96 005c 00900440 		.word	1074040832
  97 0060 FFF8FFFE 		.word	-16779009
  98 0064 00000000 		.word	PE_LDD_DeviceDataList
  99              		.cfi_endproc
 100              	.LFE0:
 102              		.section	.text.BitIoLdd5_ClrVal,"ax",%progbits
 103              		.align	2
 104              		.global	BitIoLdd5_ClrVal
 105              		.code	16
 106              		.thumb_func
 108              	BitIoLdd5_ClrVal:
 109              	.LFB1:
 144:../Generated_Code/BitIoLdd5.c **** /*
 145:../Generated_Code/BitIoLdd5.c **** ** ===================================================================
 146:../Generated_Code/BitIoLdd5.c **** **     Method      :  BitIoLdd5_ClrVal (component BitIO_LDD)
 147:../Generated_Code/BitIoLdd5.c **** */
 148:../Generated_Code/BitIoLdd5.c **** /*!
 149:../Generated_Code/BitIoLdd5.c **** **     @brief
 150:../Generated_Code/BitIoLdd5.c **** **         Clears (set to zero) the output value. It is equivalent to
 151:../Generated_Code/BitIoLdd5.c **** **         the [PutVal(FALSE)]. This method is available only if the
 152:../Generated_Code/BitIoLdd5.c **** **         direction = _[output]_ or _[input/output]_.
 153:../Generated_Code/BitIoLdd5.c **** **     @param
 154:../Generated_Code/BitIoLdd5.c **** **         DeviceDataPtr   - Pointer to device data
 155:../Generated_Code/BitIoLdd5.c **** **                           structure returned by <Init> method.
 156:../Generated_Code/BitIoLdd5.c **** */
 157:../Generated_Code/BitIoLdd5.c **** /* ===================================================================*/
 158:../Generated_Code/BitIoLdd5.c **** void BitIoLdd5_ClrVal(LDD_TDeviceData *DeviceDataPtr)
 159:../Generated_Code/BitIoLdd5.c **** {
 110              		.loc 1 159 0
 111              		.cfi_startproc
 112 0000 80B5     		push	{r7, lr}
 113              	.LCFI3:
 114              		.cfi_def_cfa_offset 8
 115              		.cfi_offset 7, -8
 116              		.cfi_offset 14, -4
 117 0002 82B0     		sub	sp, sp, #8
 118              	.LCFI4:
 119              		.cfi_def_cfa_offset 16
 120 0004 00AF     		add	r7, sp, #0
 121              	.LCFI5:
 122              		.cfi_def_cfa_register 7
 123 0006 7860     		str	r0, [r7, #4]
 160:../Generated_Code/BitIoLdd5.c ****   (void)DeviceDataPtr;                 /* Parameter is not used, suppress unused argument warning *
 161:../Generated_Code/BitIoLdd5.c ****   GPIO_PDD_ClearPortDataOutputMask(BitIoLdd5_MODULE_BASE_ADDRESS, BitIoLdd5_PORT_MASK);
 124              		.loc 1 161 0
 125 0008 034B     		ldr	r3, .L6
 126 000a 8022     		mov	r2, #128
 127 000c 9201     		lsl	r2, r2, #6
 128 000e 9A60     		str	r2, [r3, #8]
 162:../Generated_Code/BitIoLdd5.c **** }
 129              		.loc 1 162 0
 130 0010 BD46     		mov	sp, r7
 131 0012 02B0     		add	sp, sp, #8
 132              		@ sp needed for prologue
 133 0014 80BD     		pop	{r7, pc}
 134              	.L7:
 135 0016 C046     		.align	2
 136              	.L6:
 137 0018 00F00FF8 		.word	-133173248
 138              		.cfi_endproc
 139              	.LFE1:
 141              		.section	.text.BitIoLdd5_SetVal,"ax",%progbits
 142              		.align	2
 143              		.global	BitIoLdd5_SetVal
 144              		.code	16
 145              		.thumb_func
 147              	BitIoLdd5_SetVal:
 148              	.LFB2:
 163:../Generated_Code/BitIoLdd5.c **** 
 164:../Generated_Code/BitIoLdd5.c **** /*
 165:../Generated_Code/BitIoLdd5.c **** ** ===================================================================
 166:../Generated_Code/BitIoLdd5.c **** **     Method      :  BitIoLdd5_SetVal (component BitIO_LDD)
 167:../Generated_Code/BitIoLdd5.c **** */
 168:../Generated_Code/BitIoLdd5.c **** /*!
 169:../Generated_Code/BitIoLdd5.c **** **     @brief
 170:../Generated_Code/BitIoLdd5.c **** **         Sets (to one) the output value. It is equivalent to the
 171:../Generated_Code/BitIoLdd5.c **** **         [PutVal(TRUE)]. This method is available only if the
 172:../Generated_Code/BitIoLdd5.c **** **         direction = _[output]_ or _[input/output]_.
 173:../Generated_Code/BitIoLdd5.c **** **     @param
 174:../Generated_Code/BitIoLdd5.c **** **         DeviceDataPtr   - Pointer to device data
 175:../Generated_Code/BitIoLdd5.c **** **                           structure returned by <Init> method.
 176:../Generated_Code/BitIoLdd5.c **** */
 177:../Generated_Code/BitIoLdd5.c **** /* ===================================================================*/
 178:../Generated_Code/BitIoLdd5.c **** void BitIoLdd5_SetVal(LDD_TDeviceData *DeviceDataPtr)
 179:../Generated_Code/BitIoLdd5.c **** {
 149              		.loc 1 179 0
 150              		.cfi_startproc
 151 0000 80B5     		push	{r7, lr}
 152              	.LCFI6:
 153              		.cfi_def_cfa_offset 8
 154              		.cfi_offset 7, -8
 155              		.cfi_offset 14, -4
 156 0002 82B0     		sub	sp, sp, #8
 157              	.LCFI7:
 158              		.cfi_def_cfa_offset 16
 159 0004 00AF     		add	r7, sp, #0
 160              	.LCFI8:
 161              		.cfi_def_cfa_register 7
 162 0006 7860     		str	r0, [r7, #4]
 180:../Generated_Code/BitIoLdd5.c ****   (void)DeviceDataPtr;                 /* Parameter is not used, suppress unused argument warning *
 181:../Generated_Code/BitIoLdd5.c ****   GPIO_PDD_SetPortDataOutputMask(BitIoLdd5_MODULE_BASE_ADDRESS, BitIoLdd5_PORT_MASK);
 163              		.loc 1 181 0
 164 0008 034B     		ldr	r3, .L9
 165 000a 8022     		mov	r2, #128
 166 000c 9201     		lsl	r2, r2, #6
 167 000e 5A60     		str	r2, [r3, #4]
 182:../Generated_Code/BitIoLdd5.c **** }
 168              		.loc 1 182 0
 169 0010 BD46     		mov	sp, r7
 170 0012 02B0     		add	sp, sp, #8
 171              		@ sp needed for prologue
 172 0014 80BD     		pop	{r7, pc}
 173              	.L10:
 174 0016 C046     		.align	2
 175              	.L9:
 176 0018 00F00FF8 		.word	-133173248
 177              		.cfi_endproc
 178              	.LFE2:
 180              		.text
 181              	.Letext0:
 182              		.file 2 "C:/Freescale/CW MCU v10.7/MCU/ARM_GCC_Support/ewl/EWL_C/include/cstdint"
 183              		.file 3 "../Generated_Code/PE_Types.h"
 184              		.file 4 "C:/Freescale/CW MCU v10.7/MCU/ProcessorExpert/lib/Kinetis/iofiles/MKL25Z4.h"