   1              		.cpu cortex-m0
   2              		.fpu softvfp
   3              		.eabi_attribute 20, 1
   4              		.eabi_attribute 21, 1
   5              		.eabi_attribute 23, 3
   6              		.eabi_attribute 24, 1
   7              		.eabi_attribute 25, 1
   8              		.eabi_attribute 26, 1
   9              		.eabi_attribute 30, 6
  10              		.eabi_attribute 34, 0
  11              		.eabi_attribute 18, 4
  12              		.code	16
  13              		.file	"BitIoLdd15.c"
  14              		.text
  15              	.Ltext0:
  16              		.cfi_sections	.debug_frame
  17              		.section	.bss.DeviceDataPrv__DEFAULT_RTOS_ALLOC,"aw",%nobits
  18              		.align	2
  21              	DeviceDataPrv__DEFAULT_RTOS_ALLOC:
  22 0000 00000000 		.space	4
  23              		.section	.text.BitIoLdd15_Init,"ax",%progbits
  24              		.align	2
  25              		.global	BitIoLdd15_Init
  26              		.code	16
  27              		.thumb_func
  29              	BitIoLdd15_Init:
  30              	.LFB0:
  31              		.file 1 "../Generated_Code/BitIoLdd15.c"
   1:../Generated_Code/BitIoLdd15.c **** /* ###################################################################
   2:../Generated_Code/BitIoLdd15.c **** **     This component module is generated by Processor Expert. Do not modify it.
   3:../Generated_Code/BitIoLdd15.c **** **     Filename    : BitIoLdd15.c
   4:../Generated_Code/BitIoLdd15.c **** **     Project     : ProcessorExpert
   5:../Generated_Code/BitIoLdd15.c **** **     Processor   : MKL25Z128VLK4
   6:../Generated_Code/BitIoLdd15.c **** **     Component   : BitIO_LDD
   7:../Generated_Code/BitIoLdd15.c **** **     Version     : Component 01.033, Driver 01.03, CPU db: 3.00.000
   8:../Generated_Code/BitIoLdd15.c **** **     Compiler    : GNU C Compiler
   9:../Generated_Code/BitIoLdd15.c **** **     Date/Time   : 2017-12-17, 19:56, # CodeGen: 44
  10:../Generated_Code/BitIoLdd15.c **** **     Abstract    :
  11:../Generated_Code/BitIoLdd15.c **** **         The HAL BitIO component provides a low level API for unified
  12:../Generated_Code/BitIoLdd15.c **** **         access to general purpose digital input/output pins across
  13:../Generated_Code/BitIoLdd15.c **** **         various device designs.
  14:../Generated_Code/BitIoLdd15.c **** **
  15:../Generated_Code/BitIoLdd15.c **** **         RTOS drivers using HAL BitIO API are simpler and more
  16:../Generated_Code/BitIoLdd15.c **** **         portable to various microprocessors.
  17:../Generated_Code/BitIoLdd15.c **** **     Settings    :
  18:../Generated_Code/BitIoLdd15.c **** **          Component name                                 : BitIoLdd15
  19:../Generated_Code/BitIoLdd15.c **** **          Pin for I/O                                    : ADC0_SE6b/PTD5/SPI1_SCK/UART2_TX/TPM0_
  20:../Generated_Code/BitIoLdd15.c **** **          Pin signal                                     : RW_D9
  21:../Generated_Code/BitIoLdd15.c **** **          Direction                                      : Output
  22:../Generated_Code/BitIoLdd15.c **** **          Initialization                                 : 
  23:../Generated_Code/BitIoLdd15.c **** **            Init. direction                              : Output
  24:../Generated_Code/BitIoLdd15.c **** **            Init. value                                  : 0
  25:../Generated_Code/BitIoLdd15.c **** **            Auto initialization                          : yes
  26:../Generated_Code/BitIoLdd15.c **** **          Safe mode                                      : yes
  27:../Generated_Code/BitIoLdd15.c **** **     Contents    :
  28:../Generated_Code/BitIoLdd15.c **** **         Init   - LDD_TDeviceData* BitIoLdd15_Init(LDD_TUserData *UserDataPtr);
  29:../Generated_Code/BitIoLdd15.c **** **         ClrVal - void BitIoLdd15_ClrVal(LDD_TDeviceData *DeviceDataPtr);
  30:../Generated_Code/BitIoLdd15.c **** **         SetVal - void BitIoLdd15_SetVal(LDD_TDeviceData *DeviceDataPtr);
  31:../Generated_Code/BitIoLdd15.c **** **
  32:../Generated_Code/BitIoLdd15.c **** **     Copyright : 1997 - 2014 Freescale Semiconductor, Inc. 
  33:../Generated_Code/BitIoLdd15.c **** **     All Rights Reserved.
  34:../Generated_Code/BitIoLdd15.c **** **     
  35:../Generated_Code/BitIoLdd15.c **** **     Redistribution and use in source and binary forms, with or without modification,
  36:../Generated_Code/BitIoLdd15.c **** **     are permitted provided that the following conditions are met:
  37:../Generated_Code/BitIoLdd15.c **** **     
  38:../Generated_Code/BitIoLdd15.c **** **     o Redistributions of source code must retain the above copyright notice, this list
  39:../Generated_Code/BitIoLdd15.c **** **       of conditions and the following disclaimer.
  40:../Generated_Code/BitIoLdd15.c **** **     
  41:../Generated_Code/BitIoLdd15.c **** **     o Redistributions in binary form must reproduce the above copyright notice, this
  42:../Generated_Code/BitIoLdd15.c **** **       list of conditions and the following disclaimer in the documentation and/or
  43:../Generated_Code/BitIoLdd15.c **** **       other materials provided with the distribution.
  44:../Generated_Code/BitIoLdd15.c **** **     
  45:../Generated_Code/BitIoLdd15.c **** **     o Neither the name of Freescale Semiconductor, Inc. nor the names of its
  46:../Generated_Code/BitIoLdd15.c **** **       contributors may be used to endorse or promote products derived from this
  47:../Generated_Code/BitIoLdd15.c **** **       software without specific prior written permission.
  48:../Generated_Code/BitIoLdd15.c **** **     
  49:../Generated_Code/BitIoLdd15.c **** **     THIS SOFTWARE IS PROVIDED BY THE COPYRIGHT HOLDERS AND CONTRIBUTORS "AS IS" AND
  50:../Generated_Code/BitIoLdd15.c **** **     ANY EXPRESS OR IMPLIED WARRANTIES, INCLUDING, BUT NOT LIMITED TO, THE IMPLIED
  51:../Generated_Code/BitIoLdd15.c **** **     WARRANTIES OF MERCHANTABILITY AND FITNESS FOR A PARTICULAR PURPOSE ARE
  52:../Generated_Code/BitIoLdd15.c **** **     DISCLAIMED. IN NO EVENT SHALL THE COPYRIGHT HOLDER OR CONTRIBUTORS BE LIABLE FOR
  53:../Generated_Code/BitIoLdd15.c **** **     ANY DIRECT, INDIRECT, INCIDENTAL, SPECIAL, EXEMPLARY, OR CONSEQUENTIAL DAMAGES
  54:../Generated_Code/BitIoLdd15.c **** **     (INCLUDING, BUT NOT LIMITED TO, PROCUREMENT OF SUBSTITUTE GOODS OR SERVICES;
  55:../Generated_Code/BitIoLdd15.c **** **     LOSS OF USE, DATA, OR PROFITS; OR BUSINESS INTERRUPTION) HOWEVER CAUSED AND ON
  56:../Generated_Code/BitIoLdd15.c **** **     ANY THEORY OF LIABILITY, WHETHER IN CONTRACT, STRICT LIABILITY, OR TORT
  57:../Generated_Code/BitIoLdd15.c **** **     (INCLUDING NEGLIGENCE OR OTHERWISE) ARISING IN ANY WAY OUT OF THE USE OF THIS
  58:../Generated_Code/BitIoLdd15.c **** **     SOFTWARE, EVEN IF ADVISED OF THE POSSIBILITY OF SUCH DAMAGE.
  59:../Generated_Code/BitIoLdd15.c **** **     
  60:../Generated_Code/BitIoLdd15.c **** **     http: www.freescale.com
  61:../Generated_Code/BitIoLdd15.c **** **     mail: support@freescale.com
  62:../Generated_Code/BitIoLdd15.c **** ** ###################################################################*/
  63:../Generated_Code/BitIoLdd15.c **** /*!
  64:../Generated_Code/BitIoLdd15.c **** ** @file BitIoLdd15.c
  65:../Generated_Code/BitIoLdd15.c **** ** @version 01.03
  66:../Generated_Code/BitIoLdd15.c **** ** @brief
  67:../Generated_Code/BitIoLdd15.c **** **         The HAL BitIO component provides a low level API for unified
  68:../Generated_Code/BitIoLdd15.c **** **         access to general purpose digital input/output pins across
  69:../Generated_Code/BitIoLdd15.c **** **         various device designs.
  70:../Generated_Code/BitIoLdd15.c **** **
  71:../Generated_Code/BitIoLdd15.c **** **         RTOS drivers using HAL BitIO API are simpler and more
  72:../Generated_Code/BitIoLdd15.c **** **         portable to various microprocessors.
  73:../Generated_Code/BitIoLdd15.c **** */         
  74:../Generated_Code/BitIoLdd15.c **** /*!
  75:../Generated_Code/BitIoLdd15.c **** **  @addtogroup BitIoLdd15_module BitIoLdd15 module documentation
  76:../Generated_Code/BitIoLdd15.c **** **  @{
  77:../Generated_Code/BitIoLdd15.c **** */         
  78:../Generated_Code/BitIoLdd15.c **** 
  79:../Generated_Code/BitIoLdd15.c **** /* MODULE BitIoLdd15. */
  80:../Generated_Code/BitIoLdd15.c **** 
  81:../Generated_Code/BitIoLdd15.c **** /* {Default RTOS Adapter} No RTOS includes */
  82:../Generated_Code/BitIoLdd15.c **** #include "BitIoLdd15.h"
  83:../Generated_Code/BitIoLdd15.c **** 
  84:../Generated_Code/BitIoLdd15.c **** #ifdef __cplusplus
  85:../Generated_Code/BitIoLdd15.c **** extern "C" {
  86:../Generated_Code/BitIoLdd15.c **** #endif 
  87:../Generated_Code/BitIoLdd15.c **** 
  88:../Generated_Code/BitIoLdd15.c **** typedef struct {
  89:../Generated_Code/BitIoLdd15.c ****   LDD_TUserData *UserDataPtr;          /* Pointer to user data */
  90:../Generated_Code/BitIoLdd15.c **** } BitIoLdd15_TDeviceData;              /* Device data structure type */
  91:../Generated_Code/BitIoLdd15.c **** 
  92:../Generated_Code/BitIoLdd15.c **** typedef BitIoLdd15_TDeviceData *BitIoLdd15_TDeviceDataPtr ; /* Pointer to the device data structure
  93:../Generated_Code/BitIoLdd15.c **** 
  94:../Generated_Code/BitIoLdd15.c **** /* {Default RTOS Adapter} Static object used for simulation of dynamic driver memory allocation */
  95:../Generated_Code/BitIoLdd15.c **** static BitIoLdd15_TDeviceData DeviceDataPrv__DEFAULT_RTOS_ALLOC;
  96:../Generated_Code/BitIoLdd15.c **** /*
  97:../Generated_Code/BitIoLdd15.c **** ** ===================================================================
  98:../Generated_Code/BitIoLdd15.c **** **     Method      :  BitIoLdd15_Init (component BitIO_LDD)
  99:../Generated_Code/BitIoLdd15.c **** */
 100:../Generated_Code/BitIoLdd15.c **** /*!
 101:../Generated_Code/BitIoLdd15.c **** **     @brief
 102:../Generated_Code/BitIoLdd15.c **** **         Initializes the device. Allocates memory for the device data
 103:../Generated_Code/BitIoLdd15.c **** **         structure, allocates interrupt vectors and sets interrupt
 104:../Generated_Code/BitIoLdd15.c **** **         priority, sets pin routing, sets timing, etc. If the "Enable
 105:../Generated_Code/BitIoLdd15.c **** **         in init. code" is set to "yes" value then the device is also
 106:../Generated_Code/BitIoLdd15.c **** **         enabled(see the description of the Enable() method). In this
 107:../Generated_Code/BitIoLdd15.c **** **         case the Enable() method is not necessary and needn't to be
 108:../Generated_Code/BitIoLdd15.c **** **         generated. 
 109:../Generated_Code/BitIoLdd15.c **** **     @param
 110:../Generated_Code/BitIoLdd15.c **** **         UserDataPtr     - Pointer to the user or
 111:../Generated_Code/BitIoLdd15.c **** **                           RTOS specific data. This pointer will be
 112:../Generated_Code/BitIoLdd15.c **** **                           passed as an event or callback parameter.
 113:../Generated_Code/BitIoLdd15.c **** **     @return
 114:../Generated_Code/BitIoLdd15.c **** **                         - Pointer to the dynamically allocated private
 115:../Generated_Code/BitIoLdd15.c **** **                           structure or NULL if there was an error.
 116:../Generated_Code/BitIoLdd15.c **** */
 117:../Generated_Code/BitIoLdd15.c **** /* ===================================================================*/
 118:../Generated_Code/BitIoLdd15.c **** LDD_TDeviceData* BitIoLdd15_Init(LDD_TUserData *UserDataPtr)
 119:../Generated_Code/BitIoLdd15.c **** {
  32              		.loc 1 119 0
  33              		.cfi_startproc
  34 0000 80B5     		push	{r7, lr}
  35              	.LCFI0:
  36              		.cfi_def_cfa_offset 8
  37              		.cfi_offset 7, -8
  38              		.cfi_offset 14, -4
  39 0002 84B0     		sub	sp, sp, #16
  40              	.LCFI1:
  41              		.cfi_def_cfa_offset 24
  42 0004 00AF     		add	r7, sp, #0
  43              	.LCFI2:
  44              		.cfi_def_cfa_register 7
  45 0006 7860     		str	r0, [r7, #4]
 120:../Generated_Code/BitIoLdd15.c ****   /* Allocate device structure */
 121:../Generated_Code/BitIoLdd15.c ****   BitIoLdd15_TDeviceDataPtr DeviceDataPrv;
 122:../Generated_Code/BitIoLdd15.c **** 
 123:../Generated_Code/BitIoLdd15.c ****   /* {Default RTOS Adapter} Driver memory allocation: Dynamic allocation is simulated by a pointer 
 124:../Generated_Code/BitIoLdd15.c ****   DeviceDataPrv = &DeviceDataPrv__DEFAULT_RTOS_ALLOC;
  46              		.loc 1 124 0
  47 0008 104B     		ldr	r3, .L3
  48 000a FB60     		str	r3, [r7, #12]
 125:../Generated_Code/BitIoLdd15.c ****   DeviceDataPrv->UserDataPtr = UserDataPtr; /* Store the RTOS device structure */
  49              		.loc 1 125 0
  50 000c FB68     		ldr	r3, [r7, #12]
  51 000e 7A68     		ldr	r2, [r7, #4]
  52 0010 1A60     		str	r2, [r3]
 126:../Generated_Code/BitIoLdd15.c ****   /* Configure pin as output */
 127:../Generated_Code/BitIoLdd15.c ****   /* GPIOD_PDDR: PDD|=0x20 */
 128:../Generated_Code/BitIoLdd15.c ****   GPIOD_PDDR |= GPIO_PDDR_PDD(0x20);
  53              		.loc 1 128 0
  54 0012 0F4B     		ldr	r3, .L3+4
  55 0014 0E4A     		ldr	r2, .L3+4
  56 0016 5269     		ldr	r2, [r2, #20]
  57 0018 2021     		mov	r1, #32
  58 001a 0A43     		orr	r2, r1
  59 001c 5A61     		str	r2, [r3, #20]
 129:../Generated_Code/BitIoLdd15.c ****   /* Set initialization value */
 130:../Generated_Code/BitIoLdd15.c ****   /* GPIOD_PDOR: PDO&=~0x20 */
 131:../Generated_Code/BitIoLdd15.c ****   GPIOD_PDOR &= (uint32_t)~(uint32_t)(GPIO_PDOR_PDO(0x20));
  60              		.loc 1 131 0
  61 001e 0C4B     		ldr	r3, .L3+4
  62 0020 0B4A     		ldr	r2, .L3+4
  63 0022 1268     		ldr	r2, [r2]
  64 0024 2021     		mov	r1, #32
  65 0026 8A43     		bic	r2, r1
  66 0028 1A60     		str	r2, [r3]
 132:../Generated_Code/BitIoLdd15.c ****   /* Initialization of Port Control register */
 133:../Generated_Code/BitIoLdd15.c ****   /* PORTD_PCR5: ISF=0,MUX=1 */
 134:../Generated_Code/BitIoLdd15.c ****   PORTD_PCR5 = (uint32_t)((PORTD_PCR5 & (uint32_t)~(uint32_t)(
  67              		.loc 1 134 0
  68 002a 0A4B     		ldr	r3, .L3+8
  69 002c 094A     		ldr	r2, .L3+8
  70 002e 5169     		ldr	r1, [r2, #20]
  71 0030 094A     		ldr	r2, .L3+12
  72 0032 0A40     		and	r2, r1
  73 0034 8021     		mov	r1, #128
  74 0036 4900     		lsl	r1, r1, #1
  75 0038 0A43     		orr	r2, r1
  76 003a 5A61     		str	r2, [r3, #20]
 135:../Generated_Code/BitIoLdd15.c ****                 PORT_PCR_ISF_MASK |
 136:../Generated_Code/BitIoLdd15.c ****                 PORT_PCR_MUX(0x06)
 137:../Generated_Code/BitIoLdd15.c ****                )) | (uint32_t)(
 138:../Generated_Code/BitIoLdd15.c ****                 PORT_PCR_MUX(0x01)
 139:../Generated_Code/BitIoLdd15.c ****                ));
 140:../Generated_Code/BitIoLdd15.c ****   /* Registration of the device structure */
 141:../Generated_Code/BitIoLdd15.c ****   PE_LDD_RegisterDeviceStructure(PE_LDD_COMPONENT_BitIoLdd15_ID,DeviceDataPrv);
  77              		.loc 1 141 0
  78 003c 074B     		ldr	r3, .L3+16
  79 003e FA68     		ldr	r2, [r7, #12]
  80 0040 5A61     		str	r2, [r3, #20]
 142:../Generated_Code/BitIoLdd15.c ****   return ((LDD_TDeviceData *)DeviceDataPrv);
  81              		.loc 1 142 0
  82 0042 FB68     		ldr	r3, [r7, #12]
 143:../Generated_Code/BitIoLdd15.c **** }
  83              		.loc 1 143 0
  84 0044 181C     		mov	r0, r3
  85 0046 BD46     		mov	sp, r7
  86 0048 04B0     		add	sp, sp, #16
  87              		@ sp needed for prologue
  88 004a 80BD     		pop	{r7, pc}
  89              	.L4:
  90              		.align	2
  91              	.L3:
  92 004c 00000000 		.word	DeviceDataPrv__DEFAULT_RTOS_ALLOC
  93 0050 C0F00F40 		.word	1074786496
  94 0054 00C00440 		.word	1074053120
  95 0058 FFF8FFFE 		.word	-16779009
  96 005c 00000000 		.word	PE_LDD_DeviceDataList
  97              		.cfi_endproc
  98              	.LFE0:
 100              		.section	.text.BitIoLdd15_ClrVal,"ax",%progbits
 101              		.align	2
 102              		.global	BitIoLdd15_ClrVal
 103              		.code	16
 104              		.thumb_func
 106              	BitIoLdd15_ClrVal:
 107              	.LFB1:
 144:../Generated_Code/BitIoLdd15.c **** /*
 145:../Generated_Code/BitIoLdd15.c **** ** ===================================================================
 146:../Generated_Code/BitIoLdd15.c **** **     Method      :  BitIoLdd15_ClrVal (component BitIO_LDD)
 147:../Generated_Code/BitIoLdd15.c **** */
 148:../Generated_Code/BitIoLdd15.c **** /*!
 149:../Generated_Code/BitIoLdd15.c **** **     @brief
 150:../Generated_Code/BitIoLdd15.c **** **         Clears (set to zero) the output value. It is equivalent to
 151:../Generated_Code/BitIoLdd15.c **** **         the [PutVal(FALSE)]. This method is available only if the
 152:../Generated_Code/BitIoLdd15.c **** **         direction = _[output]_ or _[input/output]_.
 153:../Generated_Code/BitIoLdd15.c **** **     @param
 154:../Generated_Code/BitIoLdd15.c **** **         DeviceDataPtr   - Pointer to device data
 155:../Generated_Code/BitIoLdd15.c **** **                           structure returned by <Init> method.
 156:../Generated_Code/BitIoLdd15.c **** */
 157:../Generated_Code/BitIoLdd15.c **** /* ===================================================================*/
 158:../Generated_Code/BitIoLdd15.c **** void BitIoLdd15_ClrVal(LDD_TDeviceData *DeviceDataPtr)
 159:../Generated_Code/BitIoLdd15.c **** {
 108              		.loc 1 159 0
 109              		.cfi_startproc
 110 0000 80B5     		push	{r7, lr}
 111              	.LCFI3:
 112              		.cfi_def_cfa_offset 8
 113              		.cfi_offset 7, -8
 114              		.cfi_offset 14, -4
 115 0002 82B0     		sub	sp, sp, #8
 116              	.LCFI4:
 117              		.cfi_def_cfa_offset 16
 118 0004 00AF     		add	r7, sp, #0
 119              	.LCFI5:
 120              		.cfi_def_cfa_register 7
 121 0006 7860     		str	r0, [r7, #4]
 160:../Generated_Code/BitIoLdd15.c ****   (void)DeviceDataPtr;                 /* Parameter is not used, suppress unused argument warning *
 161:../Generated_Code/BitIoLdd15.c ****   GPIO_PDD_ClearPortDataOutputMask(BitIoLdd15_MODULE_BASE_ADDRESS, BitIoLdd15_PORT_MASK);
 122              		.loc 1 161 0
 123 0008 024B     		ldr	r3, .L6
 124 000a 2022     		mov	r2, #32
 125 000c 9A60     		str	r2, [r3, #8]
 162:../Generated_Code/BitIoLdd15.c **** }
 126              		.loc 1 162 0
 127 000e BD46     		mov	sp, r7
 128 0010 02B0     		add	sp, sp, #8
 129              		@ sp needed for prologue
 130 0012 80BD     		pop	{r7, pc}
 131              	.L7:
 132              		.align	2
 133              	.L6:
 134 0014 C0F00FF8 		.word	-133173056
 135              		.cfi_endproc
 136              	.LFE1:
 138              		.section	.text.BitIoLdd15_SetVal,"ax",%progbits
 139              		.align	2
 140              		.global	BitIoLdd15_SetVal
 141              		.code	16
 142              		.thumb_func
 144              	BitIoLdd15_SetVal:
 145              	.LFB2:
 163:../Generated_Code/BitIoLdd15.c **** 
 164:../Generated_Code/BitIoLdd15.c **** /*
 165:../Generated_Code/BitIoLdd15.c **** ** ===================================================================
 166:../Generated_Code/BitIoLdd15.c **** **     Method      :  BitIoLdd15_SetVal (component BitIO_LDD)
 167:../Generated_Code/BitIoLdd15.c **** */
 168:../Generated_Code/BitIoLdd15.c **** /*!
 169:../Generated_Code/BitIoLdd15.c **** **     @brief
 170:../Generated_Code/BitIoLdd15.c **** **         Sets (to one) the output value. It is equivalent to the
 171:../Generated_Code/BitIoLdd15.c **** **         [PutVal(TRUE)]. This method is available only if the
 172:../Generated_Code/BitIoLdd15.c **** **         direction = _[output]_ or _[input/output]_.
 173:../Generated_Code/BitIoLdd15.c **** **     @param
 174:../Generated_Code/BitIoLdd15.c **** **         DeviceDataPtr   - Pointer to device data
 175:../Generated_Code/BitIoLdd15.c **** **                           structure returned by <Init> method.
 176:../Generated_Code/BitIoLdd15.c **** */
 177:../Generated_Code/BitIoLdd15.c **** /* ===================================================================*/
 178:../Generated_Code/BitIoLdd15.c **** void BitIoLdd15_SetVal(LDD_TDeviceData *DeviceDataPtr)
 179:../Generated_Code/BitIoLdd15.c **** {
 146              		.loc 1 179 0
 147              		.cfi_startproc
 148 0000 80B5     		push	{r7, lr}
 149              	.LCFI6:
 150              		.cfi_def_cfa_offset 8
 151              		.cfi_offset 7, -8
 152              		.cfi_offset 14, -4
 153 0002 82B0     		sub	sp, sp, #8
 154              	.LCFI7:
 155              		.cfi_def_cfa_offset 16
 156 0004 00AF     		add	r7, sp, #0
 157              	.LCFI8:
 158              		.cfi_def_cfa_register 7
 159 0006 7860     		str	r0, [r7, #4]
 180:../Generated_Code/BitIoLdd15.c ****   (void)DeviceDataPtr;                 /* Parameter is not used, suppress unused argument warning *
 181:../Generated_Code/BitIoLdd15.c ****   GPIO_PDD_SetPortDataOutputMask(BitIoLdd15_MODULE_BASE_ADDRESS, BitIoLdd15_PORT_MASK);
 160              		.loc 1 181 0
 161 0008 024B     		ldr	r3, .L9
 162 000a 2022     		mov	r2, #32
 163 000c 5A60     		str	r2, [r3, #4]
 182:../Generated_Code/BitIoLdd15.c **** }
 164              		.loc 1 182 0
 165 000e BD46     		mov	sp, r7
 166 0010 02B0     		add	sp, sp, #8
 167              		@ sp needed for prologue
 168 0012 80BD     		pop	{r7, pc}
 169              	.L10:
 170              		.align	2
 171              	.L9:
 172 0014 C0F00FF8 		.word	-133173056
 173              		.cfi_endproc
 174              	.LFE2:
 176              		.text
 177              	.Letext0:
 178              		.file 2 "C:/Freescale/CW MCU v10.7/MCU/ARM_GCC_Support/ewl/EWL_C/include/cstdint"
 179              		.file 3 "../Generated_Code/PE_Types.h"
 180              		.file 4 "C:/Freescale/CW MCU v10.7/MCU/ProcessorExpert/lib/Kinetis/iofiles/MKL25Z4.h"