   1              		.cpu cortex-m0
   2              		.fpu softvfp
   3              		.eabi_attribute 20, 1
   4              		.eabi_attribute 21, 1
   5              		.eabi_attribute 23, 3
   6              		.eabi_attribute 24, 1
   7              		.eabi_attribute 25, 1
   8              		.eabi_attribute 26, 1
   9              		.eabi_attribute 30, 6
  10              		.eabi_attribute 34, 0
  11              		.eabi_attribute 18, 4
  12              		.code	16
  13              		.file	"BitIoLdd10.c"
  14              		.text
  15              	.Ltext0:
  16              		.cfi_sections	.debug_frame
  17              		.section	.bss.DeviceDataPrv__DEFAULT_RTOS_ALLOC,"aw",%nobits
  18              		.align	2
  21              	DeviceDataPrv__DEFAULT_RTOS_ALLOC:
  22 0000 00000000 		.space	4
  23              		.section	.text.BitIoLdd10_Init,"ax",%progbits
  24              		.align	2
  25              		.global	BitIoLdd10_Init
  26              		.code	16
  27              		.thumb_func
  29              	BitIoLdd10_Init:
  30              	.LFB0:
  31              		.file 1 "../Generated_Code/BitIoLdd10.c"
   1:../Generated_Code/BitIoLdd10.c **** /* ###################################################################
   2:../Generated_Code/BitIoLdd10.c **** **     This component module is generated by Processor Expert. Do not modify it.
   3:../Generated_Code/BitIoLdd10.c **** **     Filename    : BitIoLdd10.c
   4:../Generated_Code/BitIoLdd10.c **** **     Project     : ProcessorExpert
   5:../Generated_Code/BitIoLdd10.c **** **     Processor   : MKL25Z128VLK4
   6:../Generated_Code/BitIoLdd10.c **** **     Component   : BitIO_LDD
   7:../Generated_Code/BitIoLdd10.c **** **     Version     : Component 01.033, Driver 01.03, CPU db: 3.00.000
   8:../Generated_Code/BitIoLdd10.c **** **     Compiler    : GNU C Compiler
   9:../Generated_Code/BitIoLdd10.c **** **     Date/Time   : 2017-12-17, 19:56, # CodeGen: 44
  10:../Generated_Code/BitIoLdd10.c **** **     Abstract    :
  11:../Generated_Code/BitIoLdd10.c **** **         The HAL BitIO component provides a low level API for unified
  12:../Generated_Code/BitIoLdd10.c **** **         access to general purpose digital input/output pins across
  13:../Generated_Code/BitIoLdd10.c **** **         various device designs.
  14:../Generated_Code/BitIoLdd10.c **** **
  15:../Generated_Code/BitIoLdd10.c **** **         RTOS drivers using HAL BitIO API are simpler and more
  16:../Generated_Code/BitIoLdd10.c **** **         portable to various microprocessors.
  17:../Generated_Code/BitIoLdd10.c **** **     Settings    :
  18:../Generated_Code/BitIoLdd10.c **** **          Component name                                 : BitIoLdd10
  19:../Generated_Code/BitIoLdd10.c **** **          Pin for I/O                                    : TSI0_CH5/PTA4/I2C1_SDA/TPM0_CH1/NMI_b
  20:../Generated_Code/BitIoLdd10.c **** **          Pin signal                                     : DB4_D4
  21:../Generated_Code/BitIoLdd10.c **** **          Direction                                      : Input/Output
  22:../Generated_Code/BitIoLdd10.c **** **          Initialization                                 : 
  23:../Generated_Code/BitIoLdd10.c **** **            Init. direction                              : Output
  24:../Generated_Code/BitIoLdd10.c **** **            Init. value                                  : 0
  25:../Generated_Code/BitIoLdd10.c **** **            Auto initialization                          : yes
  26:../Generated_Code/BitIoLdd10.c **** **          Safe mode                                      : yes
  27:../Generated_Code/BitIoLdd10.c **** **     Contents    :
  28:../Generated_Code/BitIoLdd10.c **** **         Init      - LDD_TDeviceData* BitIoLdd10_Init(LDD_TUserData *UserDataPtr);
  29:../Generated_Code/BitIoLdd10.c **** **         SetDir    - void BitIoLdd10_SetDir(LDD_TDeviceData *DeviceDataPtr, bool Dir);
  30:../Generated_Code/BitIoLdd10.c **** **         SetInput  - void BitIoLdd10_SetInput(LDD_TDeviceData *DeviceDataPtr);
  31:../Generated_Code/BitIoLdd10.c **** **         SetOutput - void BitIoLdd10_SetOutput(LDD_TDeviceData *DeviceDataPtr);
  32:../Generated_Code/BitIoLdd10.c **** **         GetVal    - bool BitIoLdd10_GetVal(LDD_TDeviceData *DeviceDataPtr);
  33:../Generated_Code/BitIoLdd10.c **** **         PutVal    - void BitIoLdd10_PutVal(LDD_TDeviceData *DeviceDataPtr, bool Val);
  34:../Generated_Code/BitIoLdd10.c **** **         ClrVal    - void BitIoLdd10_ClrVal(LDD_TDeviceData *DeviceDataPtr);
  35:../Generated_Code/BitIoLdd10.c **** **         SetVal    - void BitIoLdd10_SetVal(LDD_TDeviceData *DeviceDataPtr);
  36:../Generated_Code/BitIoLdd10.c **** **
  37:../Generated_Code/BitIoLdd10.c **** **     Copyright : 1997 - 2014 Freescale Semiconductor, Inc. 
  38:../Generated_Code/BitIoLdd10.c **** **     All Rights Reserved.
  39:../Generated_Code/BitIoLdd10.c **** **     
  40:../Generated_Code/BitIoLdd10.c **** **     Redistribution and use in source and binary forms, with or without modification,
  41:../Generated_Code/BitIoLdd10.c **** **     are permitted provided that the following conditions are met:
  42:../Generated_Code/BitIoLdd10.c **** **     
  43:../Generated_Code/BitIoLdd10.c **** **     o Redistributions of source code must retain the above copyright notice, this list
  44:../Generated_Code/BitIoLdd10.c **** **       of conditions and the following disclaimer.
  45:../Generated_Code/BitIoLdd10.c **** **     
  46:../Generated_Code/BitIoLdd10.c **** **     o Redistributions in binary form must reproduce the above copyright notice, this
  47:../Generated_Code/BitIoLdd10.c **** **       list of conditions and the following disclaimer in the documentation and/or
  48:../Generated_Code/BitIoLdd10.c **** **       other materials provided with the distribution.
  49:../Generated_Code/BitIoLdd10.c **** **     
  50:../Generated_Code/BitIoLdd10.c **** **     o Neither the name of Freescale Semiconductor, Inc. nor the names of its
  51:../Generated_Code/BitIoLdd10.c **** **       contributors may be used to endorse or promote products derived from this
  52:../Generated_Code/BitIoLdd10.c **** **       software without specific prior written permission.
  53:../Generated_Code/BitIoLdd10.c **** **     
  54:../Generated_Code/BitIoLdd10.c **** **     THIS SOFTWARE IS PROVIDED BY THE COPYRIGHT HOLDERS AND CONTRIBUTORS "AS IS" AND
  55:../Generated_Code/BitIoLdd10.c **** **     ANY EXPRESS OR IMPLIED WARRANTIES, INCLUDING, BUT NOT LIMITED TO, THE IMPLIED
  56:../Generated_Code/BitIoLdd10.c **** **     WARRANTIES OF MERCHANTABILITY AND FITNESS FOR A PARTICULAR PURPOSE ARE
  57:../Generated_Code/BitIoLdd10.c **** **     DISCLAIMED. IN NO EVENT SHALL THE COPYRIGHT HOLDER OR CONTRIBUTORS BE LIABLE FOR
  58:../Generated_Code/BitIoLdd10.c **** **     ANY DIRECT, INDIRECT, INCIDENTAL, SPECIAL, EXEMPLARY, OR CONSEQUENTIAL DAMAGES
  59:../Generated_Code/BitIoLdd10.c **** **     (INCLUDING, BUT NOT LIMITED TO, PROCUREMENT OF SUBSTITUTE GOODS OR SERVICES;
  60:../Generated_Code/BitIoLdd10.c **** **     LOSS OF USE, DATA, OR PROFITS; OR BUSINESS INTERRUPTION) HOWEVER CAUSED AND ON
  61:../Generated_Code/BitIoLdd10.c **** **     ANY THEORY OF LIABILITY, WHETHER IN CONTRACT, STRICT LIABILITY, OR TORT
  62:../Generated_Code/BitIoLdd10.c **** **     (INCLUDING NEGLIGENCE OR OTHERWISE) ARISING IN ANY WAY OUT OF THE USE OF THIS
  63:../Generated_Code/BitIoLdd10.c **** **     SOFTWARE, EVEN IF ADVISED OF THE POSSIBILITY OF SUCH DAMAGE.
  64:../Generated_Code/BitIoLdd10.c **** **     
  65:../Generated_Code/BitIoLdd10.c **** **     http: www.freescale.com
  66:../Generated_Code/BitIoLdd10.c **** **     mail: support@freescale.com
  67:../Generated_Code/BitIoLdd10.c **** ** ###################################################################*/
  68:../Generated_Code/BitIoLdd10.c **** /*!
  69:../Generated_Code/BitIoLdd10.c **** ** @file BitIoLdd10.c
  70:../Generated_Code/BitIoLdd10.c **** ** @version 01.03
  71:../Generated_Code/BitIoLdd10.c **** ** @brief
  72:../Generated_Code/BitIoLdd10.c **** **         The HAL BitIO component provides a low level API for unified
  73:../Generated_Code/BitIoLdd10.c **** **         access to general purpose digital input/output pins across
  74:../Generated_Code/BitIoLdd10.c **** **         various device designs.
  75:../Generated_Code/BitIoLdd10.c **** **
  76:../Generated_Code/BitIoLdd10.c **** **         RTOS drivers using HAL BitIO API are simpler and more
  77:../Generated_Code/BitIoLdd10.c **** **         portable to various microprocessors.
  78:../Generated_Code/BitIoLdd10.c **** */         
  79:../Generated_Code/BitIoLdd10.c **** /*!
  80:../Generated_Code/BitIoLdd10.c **** **  @addtogroup BitIoLdd10_module BitIoLdd10 module documentation
  81:../Generated_Code/BitIoLdd10.c **** **  @{
  82:../Generated_Code/BitIoLdd10.c **** */         
  83:../Generated_Code/BitIoLdd10.c **** 
  84:../Generated_Code/BitIoLdd10.c **** /* MODULE BitIoLdd10. */
  85:../Generated_Code/BitIoLdd10.c **** 
  86:../Generated_Code/BitIoLdd10.c **** /* {Default RTOS Adapter} No RTOS includes */
  87:../Generated_Code/BitIoLdd10.c **** #include "BitIoLdd10.h"
  88:../Generated_Code/BitIoLdd10.c **** 
  89:../Generated_Code/BitIoLdd10.c **** #ifdef __cplusplus
  90:../Generated_Code/BitIoLdd10.c **** extern "C" {
  91:../Generated_Code/BitIoLdd10.c **** #endif 
  92:../Generated_Code/BitIoLdd10.c **** 
  93:../Generated_Code/BitIoLdd10.c **** typedef struct {
  94:../Generated_Code/BitIoLdd10.c ****   LDD_TUserData *UserDataPtr;          /* Pointer to user data */
  95:../Generated_Code/BitIoLdd10.c **** } BitIoLdd10_TDeviceData;              /* Device data structure type */
  96:../Generated_Code/BitIoLdd10.c **** 
  97:../Generated_Code/BitIoLdd10.c **** typedef BitIoLdd10_TDeviceData *BitIoLdd10_TDeviceDataPtr ; /* Pointer to the device data structure
  98:../Generated_Code/BitIoLdd10.c **** 
  99:../Generated_Code/BitIoLdd10.c **** /* {Default RTOS Adapter} Static object used for simulation of dynamic driver memory allocation */
 100:../Generated_Code/BitIoLdd10.c **** static BitIoLdd10_TDeviceData DeviceDataPrv__DEFAULT_RTOS_ALLOC;
 101:../Generated_Code/BitIoLdd10.c **** /*
 102:../Generated_Code/BitIoLdd10.c **** ** ===================================================================
 103:../Generated_Code/BitIoLdd10.c **** **     Method      :  BitIoLdd10_Init (component BitIO_LDD)
 104:../Generated_Code/BitIoLdd10.c **** */
 105:../Generated_Code/BitIoLdd10.c **** /*!
 106:../Generated_Code/BitIoLdd10.c **** **     @brief
 107:../Generated_Code/BitIoLdd10.c **** **         Initializes the device. Allocates memory for the device data
 108:../Generated_Code/BitIoLdd10.c **** **         structure, allocates interrupt vectors and sets interrupt
 109:../Generated_Code/BitIoLdd10.c **** **         priority, sets pin routing, sets timing, etc. If the "Enable
 110:../Generated_Code/BitIoLdd10.c **** **         in init. code" is set to "yes" value then the device is also
 111:../Generated_Code/BitIoLdd10.c **** **         enabled(see the description of the Enable() method). In this
 112:../Generated_Code/BitIoLdd10.c **** **         case the Enable() method is not necessary and needn't to be
 113:../Generated_Code/BitIoLdd10.c **** **         generated. 
 114:../Generated_Code/BitIoLdd10.c **** **     @param
 115:../Generated_Code/BitIoLdd10.c **** **         UserDataPtr     - Pointer to the user or
 116:../Generated_Code/BitIoLdd10.c **** **                           RTOS specific data. This pointer will be
 117:../Generated_Code/BitIoLdd10.c **** **                           passed as an event or callback parameter.
 118:../Generated_Code/BitIoLdd10.c **** **     @return
 119:../Generated_Code/BitIoLdd10.c **** **                         - Pointer to the dynamically allocated private
 120:../Generated_Code/BitIoLdd10.c **** **                           structure or NULL if there was an error.
 121:../Generated_Code/BitIoLdd10.c **** */
 122:../Generated_Code/BitIoLdd10.c **** /* ===================================================================*/
 123:../Generated_Code/BitIoLdd10.c **** LDD_TDeviceData* BitIoLdd10_Init(LDD_TUserData *UserDataPtr)
 124:../Generated_Code/BitIoLdd10.c **** {
  32              		.loc 1 124 0
  33              		.cfi_startproc
  34 0000 80B5     		push	{r7, lr}
  35              	.LCFI0:
  36              		.cfi_def_cfa_offset 8
  37              		.cfi_offset 7, -8
  38              		.cfi_offset 14, -4
  39 0002 84B0     		sub	sp, sp, #16
  40              	.LCFI1:
  41              		.cfi_def_cfa_offset 24
  42 0004 00AF     		add	r7, sp, #0
  43              	.LCFI2:
  44              		.cfi_def_cfa_register 7
  45 0006 7860     		str	r0, [r7, #4]
 125:../Generated_Code/BitIoLdd10.c ****   /* Allocate device structure */
 126:../Generated_Code/BitIoLdd10.c ****   BitIoLdd10_TDeviceDataPtr DeviceDataPrv;
 127:../Generated_Code/BitIoLdd10.c **** 
 128:../Generated_Code/BitIoLdd10.c ****   /* {Default RTOS Adapter} Driver memory allocation: Dynamic allocation is simulated by a pointer 
 129:../Generated_Code/BitIoLdd10.c ****   DeviceDataPrv = &DeviceDataPrv__DEFAULT_RTOS_ALLOC;
  46              		.loc 1 129 0
  47 0008 104B     		ldr	r3, .L3
  48 000a FB60     		str	r3, [r7, #12]
 130:../Generated_Code/BitIoLdd10.c ****   DeviceDataPrv->UserDataPtr = UserDataPtr; /* Store the RTOS device structure */
  49              		.loc 1 130 0
  50 000c FB68     		ldr	r3, [r7, #12]
  51 000e 7A68     		ldr	r2, [r7, #4]
  52 0010 1A60     		str	r2, [r3]
 131:../Generated_Code/BitIoLdd10.c ****   /* Configure pin as output */
 132:../Generated_Code/BitIoLdd10.c ****   /* GPIOA_PDDR: PDD|=0x10 */
 133:../Generated_Code/BitIoLdd10.c ****   GPIOA_PDDR |= GPIO_PDDR_PDD(0x10);
  53              		.loc 1 133 0
  54 0012 0F4B     		ldr	r3, .L3+4
  55 0014 0E4A     		ldr	r2, .L3+4
  56 0016 5269     		ldr	r2, [r2, #20]
  57 0018 1021     		mov	r1, #16
  58 001a 0A43     		orr	r2, r1
  59 001c 5A61     		str	r2, [r3, #20]
 134:../Generated_Code/BitIoLdd10.c ****   /* Set initialization value */
 135:../Generated_Code/BitIoLdd10.c ****   /* GPIOA_PDOR: PDO&=~0x10 */
 136:../Generated_Code/BitIoLdd10.c ****   GPIOA_PDOR &= (uint32_t)~(uint32_t)(GPIO_PDOR_PDO(0x10));
  60              		.loc 1 136 0
  61 001e 0C4B     		ldr	r3, .L3+4
  62 0020 0B4A     		ldr	r2, .L3+4
  63 0022 1268     		ldr	r2, [r2]
  64 0024 1021     		mov	r1, #16
  65 0026 8A43     		bic	r2, r1
  66 0028 1A60     		str	r2, [r3]
 137:../Generated_Code/BitIoLdd10.c ****   /* Initialization of Port Control register */
 138:../Generated_Code/BitIoLdd10.c ****   /* PORTA_PCR4: ISF=0,MUX=1 */
 139:../Generated_Code/BitIoLdd10.c ****   PORTA_PCR4 = (uint32_t)((PORTA_PCR4 & (uint32_t)~(uint32_t)(
  67              		.loc 1 139 0
  68 002a 0A4B     		ldr	r3, .L3+8
  69 002c 094A     		ldr	r2, .L3+8
  70 002e 1169     		ldr	r1, [r2, #16]
  71 0030 094A     		ldr	r2, .L3+12
  72 0032 0A40     		and	r2, r1
  73 0034 8021     		mov	r1, #128
  74 0036 4900     		lsl	r1, r1, #1
  75 0038 0A43     		orr	r2, r1
  76 003a 1A61     		str	r2, [r3, #16]
 140:../Generated_Code/BitIoLdd10.c ****                 PORT_PCR_ISF_MASK |
 141:../Generated_Code/BitIoLdd10.c ****                 PORT_PCR_MUX(0x06)
 142:../Generated_Code/BitIoLdd10.c ****                )) | (uint32_t)(
 143:../Generated_Code/BitIoLdd10.c ****                 PORT_PCR_MUX(0x01)
 144:../Generated_Code/BitIoLdd10.c ****                ));
 145:../Generated_Code/BitIoLdd10.c ****   /* Registration of the device structure */
 146:../Generated_Code/BitIoLdd10.c ****   PE_LDD_RegisterDeviceStructure(PE_LDD_COMPONENT_BitIoLdd10_ID,DeviceDataPrv);
  77              		.loc 1 146 0
  78 003c 074B     		ldr	r3, .L3+16
  79 003e FA68     		ldr	r2, [r7, #12]
  80 0040 1A62     		str	r2, [r3, #32]
 147:../Generated_Code/BitIoLdd10.c ****   return ((LDD_TDeviceData *)DeviceDataPrv);
  81              		.loc 1 147 0
  82 0042 FB68     		ldr	r3, [r7, #12]
 148:../Generated_Code/BitIoLdd10.c **** }
  83              		.loc 1 148 0
  84 0044 181C     		mov	r0, r3
  85 0046 BD46     		mov	sp, r7
  86 0048 04B0     		add	sp, sp, #16
  87              		@ sp needed for prologue
  88 004a 80BD     		pop	{r7, pc}
  89              	.L4:
  90              		.align	2
  91              	.L3:
  92 004c 00000000 		.word	DeviceDataPrv__DEFAULT_RTOS_ALLOC
  93 0050 00F00F40 		.word	1074786304
  94 0054 00900440 		.word	1074040832
  95 0058 FFF8FFFE 		.word	-16779009
  96 005c 00000000 		.word	PE_LDD_DeviceDataList
  97              		.cfi_endproc
  98              	.LFE0:
 100              		.section	.text.BitIoLdd10_SetDir,"ax",%progbits
 101              		.align	2
 102              		.global	BitIoLdd10_SetDir
 103              		.code	16
 104              		.thumb_func
 106              	BitIoLdd10_SetDir:
 107              	.LFB1:
 149:../Generated_Code/BitIoLdd10.c **** /*
 150:../Generated_Code/BitIoLdd10.c **** ** ===================================================================
 151:../Generated_Code/BitIoLdd10.c **** **     Method      :  BitIoLdd10_SetDir (component BitIO_LDD)
 152:../Generated_Code/BitIoLdd10.c **** */
 153:../Generated_Code/BitIoLdd10.c **** /*!
 154:../Generated_Code/BitIoLdd10.c **** **     @brief
 155:../Generated_Code/BitIoLdd10.c **** **         Sets a pin direction (available only if the direction =
 156:../Generated_Code/BitIoLdd10.c **** **         _[input/output]_).
 157:../Generated_Code/BitIoLdd10.c **** **     @param
 158:../Generated_Code/BitIoLdd10.c **** **         DeviceDataPtr   - Device data structure
 159:../Generated_Code/BitIoLdd10.c **** **                           pointer returned by <Init> method.
 160:../Generated_Code/BitIoLdd10.c **** **     @param
 161:../Generated_Code/BitIoLdd10.c **** **         Dir             - Direction to set. Possible values:
 162:../Generated_Code/BitIoLdd10.c **** **                           <false> - Input
 163:../Generated_Code/BitIoLdd10.c **** **                           <true> - Output
 164:../Generated_Code/BitIoLdd10.c **** */
 165:../Generated_Code/BitIoLdd10.c **** /* ===================================================================*/
 166:../Generated_Code/BitIoLdd10.c **** void BitIoLdd10_SetDir(LDD_TDeviceData *DeviceDataPtr, bool Dir)
 167:../Generated_Code/BitIoLdd10.c **** {
 108              		.loc 1 167 0
 109              		.cfi_startproc
 110 0000 80B5     		push	{r7, lr}
 111              	.LCFI3:
 112              		.cfi_def_cfa_offset 8
 113              		.cfi_offset 7, -8
 114              		.cfi_offset 14, -4
 115 0002 82B0     		sub	sp, sp, #8
 116              	.LCFI4:
 117              		.cfi_def_cfa_offset 16
 118 0004 00AF     		add	r7, sp, #0
 119              	.LCFI5:
 120              		.cfi_def_cfa_register 7
 121 0006 7860     		str	r0, [r7, #4]
 122 0008 0A1C     		mov	r2, r1
 123 000a FB1C     		add	r3, r7, #3
 124 000c 1A70     		strb	r2, [r3]
 168:../Generated_Code/BitIoLdd10.c ****   (void)DeviceDataPtr;                 /* Parameter is not used, suppress unused argument warning *
 169:../Generated_Code/BitIoLdd10.c ****   if (Dir) {
 125              		.loc 1 169 0
 126 000e FB1C     		add	r3, r7, #3
 127 0010 1B78     		ldrb	r3, [r3]
 128 0012 002B     		cmp	r3, #0
 129 0014 06D0     		beq	.L6
 170:../Generated_Code/BitIoLdd10.c ****     /* Output */
 171:../Generated_Code/BitIoLdd10.c ****     GPIO_PDD_SetPortOutputDirectionMask(BitIoLdd10_MODULE_BASE_ADDRESS, BitIoLdd10_PORT_MASK);
 130              		.loc 1 171 0
 131 0016 084B     		ldr	r3, .L8
 132 0018 074A     		ldr	r2, .L8
 133 001a 5269     		ldr	r2, [r2, #20]
 134 001c 1021     		mov	r1, #16
 135 001e 0A43     		orr	r2, r1
 136 0020 5A61     		str	r2, [r3, #20]
 137 0022 05E0     		b	.L5
 138              	.L6:
 172:../Generated_Code/BitIoLdd10.c ****   } else {
 173:../Generated_Code/BitIoLdd10.c ****     /* Input */
 174:../Generated_Code/BitIoLdd10.c ****     GPIO_PDD_SetPortInputDirectionMask(BitIoLdd10_MODULE_BASE_ADDRESS, BitIoLdd10_PORT_MASK);
 139              		.loc 1 174 0
 140 0024 044B     		ldr	r3, .L8
 141 0026 044A     		ldr	r2, .L8
 142 0028 5269     		ldr	r2, [r2, #20]
 143 002a 1021     		mov	r1, #16
 144 002c 8A43     		bic	r2, r1
 145 002e 5A61     		str	r2, [r3, #20]
 146              	.L5:
 175:../Generated_Code/BitIoLdd10.c ****   }
 176:../Generated_Code/BitIoLdd10.c **** }
 147              		.loc 1 176 0
 148 0030 BD46     		mov	sp, r7
 149 0032 02B0     		add	sp, sp, #8
 150              		@ sp needed for prologue
 151 0034 80BD     		pop	{r7, pc}
 152              	.L9:
 153 0036 C046     		.align	2
 154              	.L8:
 155 0038 00F00FF8 		.word	-133173248
 156              		.cfi_endproc
 157              	.LFE1:
 159              		.section	.text.BitIoLdd10_SetInput,"ax",%progbits
 160              		.align	2
 161              		.global	BitIoLdd10_SetInput
 162              		.code	16
 163              		.thumb_func
 165              	BitIoLdd10_SetInput:
 166              	.LFB2:
 177:../Generated_Code/BitIoLdd10.c **** 
 178:../Generated_Code/BitIoLdd10.c **** /*
 179:../Generated_Code/BitIoLdd10.c **** ** ===================================================================
 180:../Generated_Code/BitIoLdd10.c **** **     Method      :  BitIoLdd10_SetInput (component BitIO_LDD)
 181:../Generated_Code/BitIoLdd10.c **** */
 182:../Generated_Code/BitIoLdd10.c **** /*!
 183:../Generated_Code/BitIoLdd10.c **** **     @brief
 184:../Generated_Code/BitIoLdd10.c **** **         Sets a pin direction to input (available only if the
 185:../Generated_Code/BitIoLdd10.c **** **         direction = _[input/output]_).
 186:../Generated_Code/BitIoLdd10.c **** **     @param
 187:../Generated_Code/BitIoLdd10.c **** **         DeviceDataPtr   - Device data structure
 188:../Generated_Code/BitIoLdd10.c **** **                           pointer returned by <Init> method.
 189:../Generated_Code/BitIoLdd10.c **** */
 190:../Generated_Code/BitIoLdd10.c **** /* ===================================================================*/
 191:../Generated_Code/BitIoLdd10.c **** void BitIoLdd10_SetInput(LDD_TDeviceData *DeviceDataPtr)
 192:../Generated_Code/BitIoLdd10.c **** {
 167              		.loc 1 192 0
 168              		.cfi_startproc
 169 0000 80B5     		push	{r7, lr}
 170              	.LCFI6:
 171              		.cfi_def_cfa_offset 8
 172              		.cfi_offset 7, -8
 173              		.cfi_offset 14, -4
 174 0002 82B0     		sub	sp, sp, #8
 175              	.LCFI7:
 176              		.cfi_def_cfa_offset 16
 177 0004 00AF     		add	r7, sp, #0
 178              	.LCFI8:
 179              		.cfi_def_cfa_register 7
 180 0006 7860     		str	r0, [r7, #4]
 193:../Generated_Code/BitIoLdd10.c ****   (void)DeviceDataPtr;                 /* Parameter is not used, suppress unused argument warning *
 194:../Generated_Code/BitIoLdd10.c ****   GPIO_PDD_SetPortInputDirectionMask(BitIoLdd10_MODULE_BASE_ADDRESS, BitIoLdd10_PORT_MASK);
 181              		.loc 1 194 0
 182 0008 044B     		ldr	r3, .L11
 183 000a 044A     		ldr	r2, .L11
 184 000c 5269     		ldr	r2, [r2, #20]
 185 000e 1021     		mov	r1, #16
 186 0010 8A43     		bic	r2, r1
 187 0012 5A61     		str	r2, [r3, #20]
 195:../Generated_Code/BitIoLdd10.c **** }
 188              		.loc 1 195 0
 189 0014 BD46     		mov	sp, r7
 190 0016 02B0     		add	sp, sp, #8
 191              		@ sp needed for prologue
 192 0018 80BD     		pop	{r7, pc}
 193              	.L12:
 194 001a C046     		.align	2
 195              	.L11:
 196 001c 00F00FF8 		.word	-133173248
 197              		.cfi_endproc
 198              	.LFE2:
 200              		.section	.text.BitIoLdd10_SetOutput,"ax",%progbits
 201              		.align	2
 202              		.global	BitIoLdd10_SetOutput
 203              		.code	16
 204              		.thumb_func
 206              	BitIoLdd10_SetOutput:
 207              	.LFB3:
 196:../Generated_Code/BitIoLdd10.c **** 
 197:../Generated_Code/BitIoLdd10.c **** /*
 198:../Generated_Code/BitIoLdd10.c **** ** ===================================================================
 199:../Generated_Code/BitIoLdd10.c **** **     Method      :  BitIoLdd10_SetOutput (component BitIO_LDD)
 200:../Generated_Code/BitIoLdd10.c **** */
 201:../Generated_Code/BitIoLdd10.c **** /*!
 202:../Generated_Code/BitIoLdd10.c **** **     @brief
 203:../Generated_Code/BitIoLdd10.c **** **         Sets a pin direction to output (available only if the
 204:../Generated_Code/BitIoLdd10.c **** **         direction = _[input/output]_).
 205:../Generated_Code/BitIoLdd10.c **** **     @param
 206:../Generated_Code/BitIoLdd10.c **** **         DeviceDataPtr   - Device data structure
 207:../Generated_Code/BitIoLdd10.c **** **                           pointer returned by <Init> method.
 208:../Generated_Code/BitIoLdd10.c **** */
 209:../Generated_Code/BitIoLdd10.c **** /* ===================================================================*/
 210:../Generated_Code/BitIoLdd10.c **** void BitIoLdd10_SetOutput(LDD_TDeviceData *DeviceDataPtr)
 211:../Generated_Code/BitIoLdd10.c **** {
 208              		.loc 1 211 0
 209              		.cfi_startproc
 210 0000 80B5     		push	{r7, lr}
 211              	.LCFI9:
 212              		.cfi_def_cfa_offset 8
 213              		.cfi_offset 7, -8
 214              		.cfi_offset 14, -4
 215 0002 82B0     		sub	sp, sp, #8
 216              	.LCFI10:
 217              		.cfi_def_cfa_offset 16
 218 0004 00AF     		add	r7, sp, #0
 219              	.LCFI11:
 220              		.cfi_def_cfa_register 7
 221 0006 7860     		str	r0, [r7, #4]
 212:../Generated_Code/BitIoLdd10.c ****   (void)DeviceDataPtr;                 /* Parameter is not used, suppress unused argument warning *
 213:../Generated_Code/BitIoLdd10.c ****   GPIO_PDD_SetPortOutputDirectionMask(BitIoLdd10_MODULE_BASE_ADDRESS, BitIoLdd10_PORT_MASK);
 222              		.loc 1 213 0
 223 0008 044B     		ldr	r3, .L14
 224 000a 044A     		ldr	r2, .L14
 225 000c 5269     		ldr	r2, [r2, #20]
 226 000e 1021     		mov	r1, #16
 227 0010 0A43     		orr	r2, r1
 228 0012 5A61     		str	r2, [r3, #20]
 214:../Generated_Code/BitIoLdd10.c **** }
 229              		.loc 1 214 0
 230 0014 BD46     		mov	sp, r7
 231 0016 02B0     		add	sp, sp, #8
 232              		@ sp needed for prologue
 233 0018 80BD     		pop	{r7, pc}
 234              	.L15:
 235 001a C046     		.align	2
 236              	.L14:
 237 001c 00F00FF8 		.word	-133173248
 238              		.cfi_endproc
 239              	.LFE3:
 241              		.section	.text.BitIoLdd10_GetVal,"ax",%progbits
 242              		.align	2
 243              		.global	BitIoLdd10_GetVal
 244              		.code	16
 245              		.thumb_func
 247              	BitIoLdd10_GetVal:
 248              	.LFB4:
 215:../Generated_Code/BitIoLdd10.c **** 
 216:../Generated_Code/BitIoLdd10.c **** /*
 217:../Generated_Code/BitIoLdd10.c **** ** ===================================================================
 218:../Generated_Code/BitIoLdd10.c **** **     Method      :  BitIoLdd10_GetVal (component BitIO_LDD)
 219:../Generated_Code/BitIoLdd10.c **** */
 220:../Generated_Code/BitIoLdd10.c **** /*!
 221:../Generated_Code/BitIoLdd10.c **** **     @brief
 222:../Generated_Code/BitIoLdd10.c **** **         Returns the input/output value. If the direction is [input]
 223:../Generated_Code/BitIoLdd10.c **** **         then the input value of the pin is read and returned. If the
 224:../Generated_Code/BitIoLdd10.c **** **         direction is [output] then the last written value is read
 225:../Generated_Code/BitIoLdd10.c **** **         and returned (see <Safe mode> property for limitations).
 226:../Generated_Code/BitIoLdd10.c **** **         This method cannot be disabled if direction is [input].
 227:../Generated_Code/BitIoLdd10.c **** **     @param
 228:../Generated_Code/BitIoLdd10.c **** **         DeviceDataPtr   - Device data structure
 229:../Generated_Code/BitIoLdd10.c **** **                           pointer returned by <Init> method.
 230:../Generated_Code/BitIoLdd10.c **** **     @return
 231:../Generated_Code/BitIoLdd10.c **** **                         - Input or output value. Possible values:
 232:../Generated_Code/BitIoLdd10.c **** **                           <false> - logical "0" (Low level)
 233:../Generated_Code/BitIoLdd10.c **** **                           <true> - logical "1" (High level)
 234:../Generated_Code/BitIoLdd10.c **** */
 235:../Generated_Code/BitIoLdd10.c **** /* ===================================================================*/
 236:../Generated_Code/BitIoLdd10.c **** bool BitIoLdd10_GetVal(LDD_TDeviceData *DeviceDataPtr)
 237:../Generated_Code/BitIoLdd10.c **** {
 249              		.loc 1 237 0
 250              		.cfi_startproc
 251 0000 80B5     		push	{r7, lr}
 252              	.LCFI12:
 253              		.cfi_def_cfa_offset 8
 254              		.cfi_offset 7, -8
 255              		.cfi_offset 14, -4
 256 0002 84B0     		sub	sp, sp, #16
 257              	.LCFI13:
 258              		.cfi_def_cfa_offset 24
 259 0004 00AF     		add	r7, sp, #0
 260              	.LCFI14:
 261              		.cfi_def_cfa_register 7
 262 0006 7860     		str	r0, [r7, #4]
 238:../Generated_Code/BitIoLdd10.c ****   uint32_t PortData;                   /* Port data masked according to the bit used */
 239:../Generated_Code/BitIoLdd10.c **** 
 240:../Generated_Code/BitIoLdd10.c ****   (void)DeviceDataPtr;                 /* Parameter is not used, suppress unused argument warning *
 241:../Generated_Code/BitIoLdd10.c ****   if ((GPIO_PDD_GetPortDirection(BitIoLdd10_MODULE_BASE_ADDRESS) & BitIoLdd10_PORT_MASK) == 0U) {
 263              		.loc 1 241 0
 264 0008 0B4B     		ldr	r3, .L20
 265 000a 5A69     		ldr	r2, [r3, #20]
 266 000c 1023     		mov	r3, #16
 267 000e 1340     		and	r3, r2
 268 0010 05D1     		bne	.L17
 242:../Generated_Code/BitIoLdd10.c ****     /* Port is configured as input */
 243:../Generated_Code/BitIoLdd10.c ****     PortData = GPIO_PDD_GetPortDataInput(BitIoLdd10_MODULE_BASE_ADDRESS) & BitIoLdd10_PORT_MASK;
 269              		.loc 1 243 0
 270 0012 094B     		ldr	r3, .L20
 271 0014 1A69     		ldr	r2, [r3, #16]
 272 0016 1023     		mov	r3, #16
 273 0018 1340     		and	r3, r2
 274 001a FB60     		str	r3, [r7, #12]
 275 001c 04E0     		b	.L18
 276              	.L17:
 244:../Generated_Code/BitIoLdd10.c ****   } else {
 245:../Generated_Code/BitIoLdd10.c ****     /* Port is configured as output */
 246:../Generated_Code/BitIoLdd10.c ****     PortData = GPIO_PDD_GetPortDataOutput(BitIoLdd10_MODULE_BASE_ADDRESS) & BitIoLdd10_PORT_MASK;
 277              		.loc 1 246 0
 278 001e 064B     		ldr	r3, .L20
 279 0020 1A68     		ldr	r2, [r3]
 280 0022 1023     		mov	r3, #16
 281 0024 1340     		and	r3, r2
 282 0026 FB60     		str	r3, [r7, #12]
 283              	.L18:
 247:../Generated_Code/BitIoLdd10.c ****   }
 248:../Generated_Code/BitIoLdd10.c ****   return (PortData != 0U) ? (bool)TRUE : (bool)FALSE;
 284              		.loc 1 248 0
 285 0028 FB68     		ldr	r3, [r7, #12]
 286 002a 5A1E     		sub	r2, r3, #1
 287 002c 9341     		sbc	r3, r3, r2
 288 002e DBB2     		uxtb	r3, r3
 249:../Generated_Code/BitIoLdd10.c **** }
 289              		.loc 1 249 0
 290 0030 181C     		mov	r0, r3
 291 0032 BD46     		mov	sp, r7
 292 0034 04B0     		add	sp, sp, #16
 293              		@ sp needed for prologue
 294 0036 80BD     		pop	{r7, pc}
 295              	.L21:
 296              		.align	2
 297              	.L20:
 298 0038 00F00FF8 		.word	-133173248
 299              		.cfi_endproc
 300              	.LFE4:
 302              		.section	.text.BitIoLdd10_PutVal,"ax",%progbits
 303              		.align	2
 304              		.global	BitIoLdd10_PutVal
 305              		.code	16
 306              		.thumb_func
 308              	BitIoLdd10_PutVal:
 309              	.LFB5:
 250:../Generated_Code/BitIoLdd10.c **** 
 251:../Generated_Code/BitIoLdd10.c **** /*
 252:../Generated_Code/BitIoLdd10.c **** ** ===================================================================
 253:../Generated_Code/BitIoLdd10.c **** **     Method      :  BitIoLdd10_PutVal (component BitIO_LDD)
 254:../Generated_Code/BitIoLdd10.c **** */
 255:../Generated_Code/BitIoLdd10.c **** /*!
 256:../Generated_Code/BitIoLdd10.c **** **     @brief
 257:../Generated_Code/BitIoLdd10.c **** **         The specified output value is set. If the direction is <b>
 258:../Generated_Code/BitIoLdd10.c **** **         input</b>, the component saves the value to a memory or a
 259:../Generated_Code/BitIoLdd10.c **** **         register and this value will be written to the pin after
 260:../Generated_Code/BitIoLdd10.c **** **         switching to the output mode (using <tt>SetDir(TRUE)</tt>;
 261:../Generated_Code/BitIoLdd10.c **** **         see <a href="BitIOProperties.html#SafeMode">Safe mode</a>
 262:../Generated_Code/BitIoLdd10.c **** **         property for limitations). If the direction is <b>output</b>,
 263:../Generated_Code/BitIoLdd10.c **** **         it writes the value to the pin. (Method is available only if
 264:../Generated_Code/BitIoLdd10.c **** **         the direction = <u><tt>output</tt></u> or <u><tt>
 265:../Generated_Code/BitIoLdd10.c **** **         input/output</tt></u>).
 266:../Generated_Code/BitIoLdd10.c **** **     @param
 267:../Generated_Code/BitIoLdd10.c **** **         DeviceDataPtr   - Device data structure
 268:../Generated_Code/BitIoLdd10.c **** **                           pointer returned by <Init> method.
 269:../Generated_Code/BitIoLdd10.c **** **     @param
 270:../Generated_Code/BitIoLdd10.c **** **         Val             - Output value. Possible values:
 271:../Generated_Code/BitIoLdd10.c **** **                           <false> - logical "0" (Low level)
 272:../Generated_Code/BitIoLdd10.c **** **                           <true> - logical "1" (High level)
 273:../Generated_Code/BitIoLdd10.c **** */
 274:../Generated_Code/BitIoLdd10.c **** /* ===================================================================*/
 275:../Generated_Code/BitIoLdd10.c **** void BitIoLdd10_PutVal(LDD_TDeviceData *DeviceDataPtr, bool Val)
 276:../Generated_Code/BitIoLdd10.c **** {
 310              		.loc 1 276 0
 311              		.cfi_startproc
 312 0000 80B5     		push	{r7, lr}
 313              	.LCFI15:
 314              		.cfi_def_cfa_offset 8
 315              		.cfi_offset 7, -8
 316              		.cfi_offset 14, -4
 317 0002 82B0     		sub	sp, sp, #8
 318              	.LCFI16:
 319              		.cfi_def_cfa_offset 16
 320 0004 00AF     		add	r7, sp, #0
 321              	.LCFI17:
 322              		.cfi_def_cfa_register 7
 323 0006 7860     		str	r0, [r7, #4]
 324 0008 0A1C     		mov	r2, r1
 325 000a FB1C     		add	r3, r7, #3
 326 000c 1A70     		strb	r2, [r3]
 277:../Generated_Code/BitIoLdd10.c ****   (void)DeviceDataPtr;                 /* Parameter is not used, suppress unused argument warning *
 278:../Generated_Code/BitIoLdd10.c ****   if (Val) {
 327              		.loc 1 278 0
 328 000e FB1C     		add	r3, r7, #3
 329 0010 1B78     		ldrb	r3, [r3]
 330 0012 002B     		cmp	r3, #0
 331 0014 03D0     		beq	.L23
 279:../Generated_Code/BitIoLdd10.c ****     GPIO_PDD_SetPortDataOutputMask(BitIoLdd10_MODULE_BASE_ADDRESS, BitIoLdd10_PORT_MASK);
 332              		.loc 1 279 0
 333 0016 054B     		ldr	r3, .L25
 334 0018 1022     		mov	r2, #16
 335 001a 5A60     		str	r2, [r3, #4]
 336 001c 02E0     		b	.L22
 337              	.L23:
 280:../Generated_Code/BitIoLdd10.c ****   } else { /* !Val */
 281:../Generated_Code/BitIoLdd10.c ****     GPIO_PDD_ClearPortDataOutputMask(BitIoLdd10_MODULE_BASE_ADDRESS, BitIoLdd10_PORT_MASK);
 338              		.loc 1 281 0
 339 001e 034B     		ldr	r3, .L25
 340 0020 1022     		mov	r2, #16
 341 0022 9A60     		str	r2, [r3, #8]
 342              	.L22:
 282:../Generated_Code/BitIoLdd10.c ****   } /* !Val */
 283:../Generated_Code/BitIoLdd10.c **** }
 343              		.loc 1 283 0
 344 0024 BD46     		mov	sp, r7
 345 0026 02B0     		add	sp, sp, #8
 346              		@ sp needed for prologue
 347 0028 80BD     		pop	{r7, pc}
 348              	.L26:
 349 002a C046     		.align	2
 350              	.L25:
 351 002c 00F00FF8 		.word	-133173248
 352              		.cfi_endproc
 353              	.LFE5:
 355              		.section	.text.BitIoLdd10_ClrVal,"ax",%progbits
 356              		.align	2
 357              		.global	BitIoLdd10_ClrVal
 358              		.code	16
 359              		.thumb_func
 361              	BitIoLdd10_ClrVal:
 362              	.LFB6:
 284:../Generated_Code/BitIoLdd10.c **** 
 285:../Generated_Code/BitIoLdd10.c **** /*
 286:../Generated_Code/BitIoLdd10.c **** ** ===================================================================
 287:../Generated_Code/BitIoLdd10.c **** **     Method      :  BitIoLdd10_ClrVal (component BitIO_LDD)
 288:../Generated_Code/BitIoLdd10.c **** */
 289:../Generated_Code/BitIoLdd10.c **** /*!
 290:../Generated_Code/BitIoLdd10.c **** **     @brief
 291:../Generated_Code/BitIoLdd10.c **** **         Clears (set to zero) the output value. It is equivalent to
 292:../Generated_Code/BitIoLdd10.c **** **         the [PutVal(FALSE)]. This method is available only if the
 293:../Generated_Code/BitIoLdd10.c **** **         direction = _[output]_ or _[input/output]_.
 294:../Generated_Code/BitIoLdd10.c **** **     @param
 295:../Generated_Code/BitIoLdd10.c **** **         DeviceDataPtr   - Pointer to device data
 296:../Generated_Code/BitIoLdd10.c **** **                           structure returned by <Init> method.
 297:../Generated_Code/BitIoLdd10.c **** */
 298:../Generated_Code/BitIoLdd10.c **** /* ===================================================================*/
 299:../Generated_Code/BitIoLdd10.c **** void BitIoLdd10_ClrVal(LDD_TDeviceData *DeviceDataPtr)
 300:../Generated_Code/BitIoLdd10.c **** {
 363              		.loc 1 300 0
 364              		.cfi_startproc
 365 0000 80B5     		push	{r7, lr}
 366              	.LCFI18:
 367              		.cfi_def_cfa_offset 8
 368              		.cfi_offset 7, -8
 369              		.cfi_offset 14, -4
 370 0002 82B0     		sub	sp, sp, #8
 371              	.LCFI19:
 372              		.cfi_def_cfa_offset 16
 373 0004 00AF     		add	r7, sp, #0
 374              	.LCFI20:
 375              		.cfi_def_cfa_register 7
 376 0006 7860     		str	r0, [r7, #4]
 301:../Generated_Code/BitIoLdd10.c ****   (void)DeviceDataPtr;                 /* Parameter is not used, suppress unused argument warning *
 302:../Generated_Code/BitIoLdd10.c ****   GPIO_PDD_ClearPortDataOutputMask(BitIoLdd10_MODULE_BASE_ADDRESS, BitIoLdd10_PORT_MASK);
 377              		.loc 1 302 0
 378 0008 024B     		ldr	r3, .L28
 379 000a 1022     		mov	r2, #16
 380 000c 9A60     		str	r2, [r3, #8]
 303:../Generated_Code/BitIoLdd10.c **** }
 381              		.loc 1 303 0
 382 000e BD46     		mov	sp, r7
 383 0010 02B0     		add	sp, sp, #8
 384              		@ sp needed for prologue
 385 0012 80BD     		pop	{r7, pc}
 386              	.L29:
 387              		.align	2
 388              	.L28:
 389 0014 00F00FF8 		.word	-133173248
 390              		.cfi_endproc
 391              	.LFE6:
 393              		.section	.text.BitIoLdd10_SetVal,"ax",%progbits
 394              		.align	2
 395              		.global	BitIoLdd10_SetVal
 396              		.code	16
 397              		.thumb_func
 399              	BitIoLdd10_SetVal:
 400              	.LFB7:
 304:../Generated_Code/BitIoLdd10.c **** 
 305:../Generated_Code/BitIoLdd10.c **** /*
 306:../Generated_Code/BitIoLdd10.c **** ** ===================================================================
 307:../Generated_Code/BitIoLdd10.c **** **     Method      :  BitIoLdd10_SetVal (component BitIO_LDD)
 308:../Generated_Code/BitIoLdd10.c **** */
 309:../Generated_Code/BitIoLdd10.c **** /*!
 310:../Generated_Code/BitIoLdd10.c **** **     @brief
 311:../Generated_Code/BitIoLdd10.c **** **         Sets (to one) the output value. It is equivalent to the
 312:../Generated_Code/BitIoLdd10.c **** **         [PutVal(TRUE)]. This method is available only if the
 313:../Generated_Code/BitIoLdd10.c **** **         direction = _[output]_ or _[input/output]_.
 314:../Generated_Code/BitIoLdd10.c **** **     @param
 315:../Generated_Code/BitIoLdd10.c **** **         DeviceDataPtr   - Pointer to device data
 316:../Generated_Code/BitIoLdd10.c **** **                           structure returned by <Init> method.
 317:../Generated_Code/BitIoLdd10.c **** */
 318:../Generated_Code/BitIoLdd10.c **** /* ===================================================================*/
 319:../Generated_Code/BitIoLdd10.c **** void BitIoLdd10_SetVal(LDD_TDeviceData *DeviceDataPtr)
 320:../Generated_Code/BitIoLdd10.c **** {
 401              		.loc 1 320 0
 402              		.cfi_startproc
 403 0000 80B5     		push	{r7, lr}
 404              	.LCFI21:
 405              		.cfi_def_cfa_offset 8
 406              		.cfi_offset 7, -8
 407              		.cfi_offset 14, -4
 408 0002 82B0     		sub	sp, sp, #8
 409              	.LCFI22:
 410              		.cfi_def_cfa_offset 16
 411 0004 00AF     		add	r7, sp, #0
 412              	.LCFI23:
 413              		.cfi_def_cfa_register 7
 414 0006 7860     		str	r0, [r7, #4]
 321:../Generated_Code/BitIoLdd10.c ****   (void)DeviceDataPtr;                 /* Parameter is not used, suppress unused argument warning *
 322:../Generated_Code/BitIoLdd10.c ****   GPIO_PDD_SetPortDataOutputMask(BitIoLdd10_MODULE_BASE_ADDRESS, BitIoLdd10_PORT_MASK);
 415              		.loc 1 322 0
 416 0008 024B     		ldr	r3, .L31
 417 000a 1022     		mov	r2, #16
 418 000c 5A60     		str	r2, [r3, #4]
 323:../Generated_Code/BitIoLdd10.c **** }
 419              		.loc 1 323 0
 420 000e BD46     		mov	sp, r7
 421 0010 02B0     		add	sp, sp, #8
 422              		@ sp needed for prologue
 423 0012 80BD     		pop	{r7, pc}
 424              	.L32:
 425              		.align	2
 426              	.L31:
 427 0014 00F00FF8 		.word	-133173248
 428              		.cfi_endproc
 429              	.LFE7:
 431              		.text
 432              	.Letext0:
 433              		.file 2 "C:/Freescale/CW MCU v10.7/MCU/ARM_GCC_Support/ewl/EWL_C/include/cstdint"
 434              		.file 3 "../Generated_Code/PE_Types.h"
 435              		.file 4 "C:/Freescale/CW MCU v10.7/MCU/ProcessorExpert/lib/Kinetis/iofiles/MKL25Z4.h"