   1              		.cpu cortex-m0
   2              		.fpu softvfp
   3              		.eabi_attribute 20, 1
   4              		.eabi_attribute 21, 1
   5              		.eabi_attribute 23, 3
   6              		.eabi_attribute 24, 1
   7              		.eabi_attribute 25, 1
   8              		.eabi_attribute 26, 1
   9              		.eabi_attribute 30, 6
  10              		.eabi_attribute 34, 0
  11              		.eabi_attribute 18, 4
  12              		.code	16
  13              		.file	"BitIoLdd12.c"
  14              		.text
  15              	.Ltext0:
  16              		.cfi_sections	.debug_frame
  17              		.section	.bss.DeviceDataPrv__DEFAULT_RTOS_ALLOC,"aw",%nobits
  18              		.align	2
  21              	DeviceDataPrv__DEFAULT_RTOS_ALLOC:
  22 0000 00000000 		.space	4
  23              		.section	.text.BitIoLdd12_Init,"ax",%progbits
  24              		.align	2
  25              		.global	BitIoLdd12_Init
  26              		.code	16
  27              		.thumb_func
  29              	BitIoLdd12_Init:
  30              	.LFB0:
  31              		.file 1 "../Generated_Code/BitIoLdd12.c"
   1:../Generated_Code/BitIoLdd12.c **** /* ###################################################################
   2:../Generated_Code/BitIoLdd12.c **** **     This component module is generated by Processor Expert. Do not modify it.
   3:../Generated_Code/BitIoLdd12.c **** **     Filename    : BitIoLdd12.c
   4:../Generated_Code/BitIoLdd12.c **** **     Project     : ProcessorExpert
   5:../Generated_Code/BitIoLdd12.c **** **     Processor   : MKL25Z128VLK4
   6:../Generated_Code/BitIoLdd12.c **** **     Component   : BitIO_LDD
   7:../Generated_Code/BitIoLdd12.c **** **     Version     : Component 01.033, Driver 01.03, CPU db: 3.00.000
   8:../Generated_Code/BitIoLdd12.c **** **     Compiler    : GNU C Compiler
   9:../Generated_Code/BitIoLdd12.c **** **     Date/Time   : 2017-12-17, 19:56, # CodeGen: 44
  10:../Generated_Code/BitIoLdd12.c **** **     Abstract    :
  11:../Generated_Code/BitIoLdd12.c **** **         The HAL BitIO component provides a low level API for unified
  12:../Generated_Code/BitIoLdd12.c **** **         access to general purpose digital input/output pins across
  13:../Generated_Code/BitIoLdd12.c **** **         various device designs.
  14:../Generated_Code/BitIoLdd12.c **** **
  15:../Generated_Code/BitIoLdd12.c **** **         RTOS drivers using HAL BitIO API are simpler and more
  16:../Generated_Code/BitIoLdd12.c **** **         portable to various microprocessors.
  17:../Generated_Code/BitIoLdd12.c **** **     Settings    :
  18:../Generated_Code/BitIoLdd12.c **** **          Component name                                 : BitIoLdd12
  19:../Generated_Code/BitIoLdd12.c **** **          Pin for I/O                                    : CMP0_IN2/PTC8/I2C0_SCL/TPM0_CH4
  20:../Generated_Code/BitIoLdd12.c **** **          Pin signal                                     : DB6_D6
  21:../Generated_Code/BitIoLdd12.c **** **          Direction                                      : Input/Output
  22:../Generated_Code/BitIoLdd12.c **** **          Initialization                                 : 
  23:../Generated_Code/BitIoLdd12.c **** **            Init. direction                              : Output
  24:../Generated_Code/BitIoLdd12.c **** **            Init. value                                  : 0
  25:../Generated_Code/BitIoLdd12.c **** **            Auto initialization                          : yes
  26:../Generated_Code/BitIoLdd12.c **** **          Safe mode                                      : yes
  27:../Generated_Code/BitIoLdd12.c **** **     Contents    :
  28:../Generated_Code/BitIoLdd12.c **** **         Init      - LDD_TDeviceData* BitIoLdd12_Init(LDD_TUserData *UserDataPtr);
  29:../Generated_Code/BitIoLdd12.c **** **         SetDir    - void BitIoLdd12_SetDir(LDD_TDeviceData *DeviceDataPtr, bool Dir);
  30:../Generated_Code/BitIoLdd12.c **** **         SetInput  - void BitIoLdd12_SetInput(LDD_TDeviceData *DeviceDataPtr);
  31:../Generated_Code/BitIoLdd12.c **** **         SetOutput - void BitIoLdd12_SetOutput(LDD_TDeviceData *DeviceDataPtr);
  32:../Generated_Code/BitIoLdd12.c **** **         GetVal    - bool BitIoLdd12_GetVal(LDD_TDeviceData *DeviceDataPtr);
  33:../Generated_Code/BitIoLdd12.c **** **         PutVal    - void BitIoLdd12_PutVal(LDD_TDeviceData *DeviceDataPtr, bool Val);
  34:../Generated_Code/BitIoLdd12.c **** **         ClrVal    - void BitIoLdd12_ClrVal(LDD_TDeviceData *DeviceDataPtr);
  35:../Generated_Code/BitIoLdd12.c **** **         SetVal    - void BitIoLdd12_SetVal(LDD_TDeviceData *DeviceDataPtr);
  36:../Generated_Code/BitIoLdd12.c **** **
  37:../Generated_Code/BitIoLdd12.c **** **     Copyright : 1997 - 2014 Freescale Semiconductor, Inc. 
  38:../Generated_Code/BitIoLdd12.c **** **     All Rights Reserved.
  39:../Generated_Code/BitIoLdd12.c **** **     
  40:../Generated_Code/BitIoLdd12.c **** **     Redistribution and use in source and binary forms, with or without modification,
  41:../Generated_Code/BitIoLdd12.c **** **     are permitted provided that the following conditions are met:
  42:../Generated_Code/BitIoLdd12.c **** **     
  43:../Generated_Code/BitIoLdd12.c **** **     o Redistributions of source code must retain the above copyright notice, this list
  44:../Generated_Code/BitIoLdd12.c **** **       of conditions and the following disclaimer.
  45:../Generated_Code/BitIoLdd12.c **** **     
  46:../Generated_Code/BitIoLdd12.c **** **     o Redistributions in binary form must reproduce the above copyright notice, this
  47:../Generated_Code/BitIoLdd12.c **** **       list of conditions and the following disclaimer in the documentation and/or
  48:../Generated_Code/BitIoLdd12.c **** **       other materials provided with the distribution.
  49:../Generated_Code/BitIoLdd12.c **** **     
  50:../Generated_Code/BitIoLdd12.c **** **     o Neither the name of Freescale Semiconductor, Inc. nor the names of its
  51:../Generated_Code/BitIoLdd12.c **** **       contributors may be used to endorse or promote products derived from this
  52:../Generated_Code/BitIoLdd12.c **** **       software without specific prior written permission.
  53:../Generated_Code/BitIoLdd12.c **** **     
  54:../Generated_Code/BitIoLdd12.c **** **     THIS SOFTWARE IS PROVIDED BY THE COPYRIGHT HOLDERS AND CONTRIBUTORS "AS IS" AND
  55:../Generated_Code/BitIoLdd12.c **** **     ANY EXPRESS OR IMPLIED WARRANTIES, INCLUDING, BUT NOT LIMITED TO, THE IMPLIED
  56:../Generated_Code/BitIoLdd12.c **** **     WARRANTIES OF MERCHANTABILITY AND FITNESS FOR A PARTICULAR PURPOSE ARE
  57:../Generated_Code/BitIoLdd12.c **** **     DISCLAIMED. IN NO EVENT SHALL THE COPYRIGHT HOLDER OR CONTRIBUTORS BE LIABLE FOR
  58:../Generated_Code/BitIoLdd12.c **** **     ANY DIRECT, INDIRECT, INCIDENTAL, SPECIAL, EXEMPLARY, OR CONSEQUENTIAL DAMAGES
  59:../Generated_Code/BitIoLdd12.c **** **     (INCLUDING, BUT NOT LIMITED TO, PROCUREMENT OF SUBSTITUTE GOODS OR SERVICES;
  60:../Generated_Code/BitIoLdd12.c **** **     LOSS OF USE, DATA, OR PROFITS; OR BUSINESS INTERRUPTION) HOWEVER CAUSED AND ON
  61:../Generated_Code/BitIoLdd12.c **** **     ANY THEORY OF LIABILITY, WHETHER IN CONTRACT, STRICT LIABILITY, OR TORT
  62:../Generated_Code/BitIoLdd12.c **** **     (INCLUDING NEGLIGENCE OR OTHERWISE) ARISING IN ANY WAY OUT OF THE USE OF THIS
  63:../Generated_Code/BitIoLdd12.c **** **     SOFTWARE, EVEN IF ADVISED OF THE POSSIBILITY OF SUCH DAMAGE.
  64:../Generated_Code/BitIoLdd12.c **** **     
  65:../Generated_Code/BitIoLdd12.c **** **     http: www.freescale.com
  66:../Generated_Code/BitIoLdd12.c **** **     mail: support@freescale.com
  67:../Generated_Code/BitIoLdd12.c **** ** ###################################################################*/
  68:../Generated_Code/BitIoLdd12.c **** /*!
  69:../Generated_Code/BitIoLdd12.c **** ** @file BitIoLdd12.c
  70:../Generated_Code/BitIoLdd12.c **** ** @version 01.03
  71:../Generated_Code/BitIoLdd12.c **** ** @brief
  72:../Generated_Code/BitIoLdd12.c **** **         The HAL BitIO component provides a low level API for unified
  73:../Generated_Code/BitIoLdd12.c **** **         access to general purpose digital input/output pins across
  74:../Generated_Code/BitIoLdd12.c **** **         various device designs.
  75:../Generated_Code/BitIoLdd12.c **** **
  76:../Generated_Code/BitIoLdd12.c **** **         RTOS drivers using HAL BitIO API are simpler and more
  77:../Generated_Code/BitIoLdd12.c **** **         portable to various microprocessors.
  78:../Generated_Code/BitIoLdd12.c **** */         
  79:../Generated_Code/BitIoLdd12.c **** /*!
  80:../Generated_Code/BitIoLdd12.c **** **  @addtogroup BitIoLdd12_module BitIoLdd12 module documentation
  81:../Generated_Code/BitIoLdd12.c **** **  @{
  82:../Generated_Code/BitIoLdd12.c **** */         
  83:../Generated_Code/BitIoLdd12.c **** 
  84:../Generated_Code/BitIoLdd12.c **** /* MODULE BitIoLdd12. */
  85:../Generated_Code/BitIoLdd12.c **** 
  86:../Generated_Code/BitIoLdd12.c **** /* {Default RTOS Adapter} No RTOS includes */
  87:../Generated_Code/BitIoLdd12.c **** #include "BitIoLdd12.h"
  88:../Generated_Code/BitIoLdd12.c **** 
  89:../Generated_Code/BitIoLdd12.c **** #ifdef __cplusplus
  90:../Generated_Code/BitIoLdd12.c **** extern "C" {
  91:../Generated_Code/BitIoLdd12.c **** #endif 
  92:../Generated_Code/BitIoLdd12.c **** 
  93:../Generated_Code/BitIoLdd12.c **** typedef struct {
  94:../Generated_Code/BitIoLdd12.c ****   LDD_TUserData *UserDataPtr;          /* Pointer to user data */
  95:../Generated_Code/BitIoLdd12.c **** } BitIoLdd12_TDeviceData;              /* Device data structure type */
  96:../Generated_Code/BitIoLdd12.c **** 
  97:../Generated_Code/BitIoLdd12.c **** typedef BitIoLdd12_TDeviceData *BitIoLdd12_TDeviceDataPtr ; /* Pointer to the device data structure
  98:../Generated_Code/BitIoLdd12.c **** 
  99:../Generated_Code/BitIoLdd12.c **** /* {Default RTOS Adapter} Static object used for simulation of dynamic driver memory allocation */
 100:../Generated_Code/BitIoLdd12.c **** static BitIoLdd12_TDeviceData DeviceDataPrv__DEFAULT_RTOS_ALLOC;
 101:../Generated_Code/BitIoLdd12.c **** /*
 102:../Generated_Code/BitIoLdd12.c **** ** ===================================================================
 103:../Generated_Code/BitIoLdd12.c **** **     Method      :  BitIoLdd12_Init (component BitIO_LDD)
 104:../Generated_Code/BitIoLdd12.c **** */
 105:../Generated_Code/BitIoLdd12.c **** /*!
 106:../Generated_Code/BitIoLdd12.c **** **     @brief
 107:../Generated_Code/BitIoLdd12.c **** **         Initializes the device. Allocates memory for the device data
 108:../Generated_Code/BitIoLdd12.c **** **         structure, allocates interrupt vectors and sets interrupt
 109:../Generated_Code/BitIoLdd12.c **** **         priority, sets pin routing, sets timing, etc. If the "Enable
 110:../Generated_Code/BitIoLdd12.c **** **         in init. code" is set to "yes" value then the device is also
 111:../Generated_Code/BitIoLdd12.c **** **         enabled(see the description of the Enable() method). In this
 112:../Generated_Code/BitIoLdd12.c **** **         case the Enable() method is not necessary and needn't to be
 113:../Generated_Code/BitIoLdd12.c **** **         generated. 
 114:../Generated_Code/BitIoLdd12.c **** **     @param
 115:../Generated_Code/BitIoLdd12.c **** **         UserDataPtr     - Pointer to the user or
 116:../Generated_Code/BitIoLdd12.c **** **                           RTOS specific data. This pointer will be
 117:../Generated_Code/BitIoLdd12.c **** **                           passed as an event or callback parameter.
 118:../Generated_Code/BitIoLdd12.c **** **     @return
 119:../Generated_Code/BitIoLdd12.c **** **                         - Pointer to the dynamically allocated private
 120:../Generated_Code/BitIoLdd12.c **** **                           structure or NULL if there was an error.
 121:../Generated_Code/BitIoLdd12.c **** */
 122:../Generated_Code/BitIoLdd12.c **** /* ===================================================================*/
 123:../Generated_Code/BitIoLdd12.c **** LDD_TDeviceData* BitIoLdd12_Init(LDD_TUserData *UserDataPtr)
 124:../Generated_Code/BitIoLdd12.c **** {
  32              		.loc 1 124 0
  33              		.cfi_startproc
  34 0000 80B5     		push	{r7, lr}
  35              	.LCFI0:
  36              		.cfi_def_cfa_offset 8
  37              		.cfi_offset 7, -8
  38              		.cfi_offset 14, -4
  39 0002 84B0     		sub	sp, sp, #16
  40              	.LCFI1:
  41              		.cfi_def_cfa_offset 24
  42 0004 00AF     		add	r7, sp, #0
  43              	.LCFI2:
  44              		.cfi_def_cfa_register 7
  45 0006 7860     		str	r0, [r7, #4]
 125:../Generated_Code/BitIoLdd12.c ****   /* Allocate device structure */
 126:../Generated_Code/BitIoLdd12.c ****   BitIoLdd12_TDeviceDataPtr DeviceDataPrv;
 127:../Generated_Code/BitIoLdd12.c **** 
 128:../Generated_Code/BitIoLdd12.c ****   /* {Default RTOS Adapter} Driver memory allocation: Dynamic allocation is simulated by a pointer 
 129:../Generated_Code/BitIoLdd12.c ****   DeviceDataPrv = &DeviceDataPrv__DEFAULT_RTOS_ALLOC;
  46              		.loc 1 129 0
  47 0008 114B     		ldr	r3, .L3
  48 000a FB60     		str	r3, [r7, #12]
 130:../Generated_Code/BitIoLdd12.c ****   DeviceDataPrv->UserDataPtr = UserDataPtr; /* Store the RTOS device structure */
  49              		.loc 1 130 0
  50 000c FB68     		ldr	r3, [r7, #12]
  51 000e 7A68     		ldr	r2, [r7, #4]
  52 0010 1A60     		str	r2, [r3]
 131:../Generated_Code/BitIoLdd12.c ****   /* Configure pin as output */
 132:../Generated_Code/BitIoLdd12.c ****   /* GPIOC_PDDR: PDD|=0x0100 */
 133:../Generated_Code/BitIoLdd12.c ****   GPIOC_PDDR |= GPIO_PDDR_PDD(0x0100);
  53              		.loc 1 133 0
  54 0012 104B     		ldr	r3, .L3+4
  55 0014 0F4A     		ldr	r2, .L3+4
  56 0016 5269     		ldr	r2, [r2, #20]
  57 0018 8021     		mov	r1, #128
  58 001a 4900     		lsl	r1, r1, #1
  59 001c 0A43     		orr	r2, r1
  60 001e 5A61     		str	r2, [r3, #20]
 134:../Generated_Code/BitIoLdd12.c ****   /* Set initialization value */
 135:../Generated_Code/BitIoLdd12.c ****   /* GPIOC_PDOR: PDO&=~0x0100 */
 136:../Generated_Code/BitIoLdd12.c ****   GPIOC_PDOR &= (uint32_t)~(uint32_t)(GPIO_PDOR_PDO(0x0100));
  61              		.loc 1 136 0
  62 0020 0C4B     		ldr	r3, .L3+4
  63 0022 0C4A     		ldr	r2, .L3+4
  64 0024 1168     		ldr	r1, [r2]
  65 0026 0C4A     		ldr	r2, .L3+8
  66 0028 0A40     		and	r2, r1
  67 002a 1A60     		str	r2, [r3]
 137:../Generated_Code/BitIoLdd12.c ****   /* Initialization of Port Control register */
 138:../Generated_Code/BitIoLdd12.c ****   /* PORTC_PCR8: ISF=0,MUX=1 */
 139:../Generated_Code/BitIoLdd12.c ****   PORTC_PCR8 = (uint32_t)((PORTC_PCR8 & (uint32_t)~(uint32_t)(
  68              		.loc 1 139 0
  69 002c 0B4B     		ldr	r3, .L3+12
  70 002e 0B4A     		ldr	r2, .L3+12
  71 0030 116A     		ldr	r1, [r2, #32]
  72 0032 0B4A     		ldr	r2, .L3+16
  73 0034 0A40     		and	r2, r1
  74 0036 8021     		mov	r1, #128
  75 0038 4900     		lsl	r1, r1, #1
  76 003a 0A43     		orr	r2, r1
  77 003c 1A62     		str	r2, [r3, #32]
 140:../Generated_Code/BitIoLdd12.c ****                 PORT_PCR_ISF_MASK |
 141:../Generated_Code/BitIoLdd12.c ****                 PORT_PCR_MUX(0x06)
 142:../Generated_Code/BitIoLdd12.c ****                )) | (uint32_t)(
 143:../Generated_Code/BitIoLdd12.c ****                 PORT_PCR_MUX(0x01)
 144:../Generated_Code/BitIoLdd12.c ****                ));
 145:../Generated_Code/BitIoLdd12.c ****   /* Registration of the device structure */
 146:../Generated_Code/BitIoLdd12.c ****   PE_LDD_RegisterDeviceStructure(PE_LDD_COMPONENT_BitIoLdd12_ID,DeviceDataPrv);
  78              		.loc 1 146 0
  79 003e 094B     		ldr	r3, .L3+20
  80 0040 FA68     		ldr	r2, [r7, #12]
  81 0042 9A62     		str	r2, [r3, #40]
 147:../Generated_Code/BitIoLdd12.c ****   return ((LDD_TDeviceData *)DeviceDataPrv);
  82              		.loc 1 147 0
  83 0044 FB68     		ldr	r3, [r7, #12]
 148:../Generated_Code/BitIoLdd12.c **** }
  84              		.loc 1 148 0
  85 0046 181C     		mov	r0, r3
  86 0048 BD46     		mov	sp, r7
  87 004a 04B0     		add	sp, sp, #16
  88              		@ sp needed for prologue
  89 004c 80BD     		pop	{r7, pc}
  90              	.L4:
  91 004e C046     		.align	2
  92              	.L3:
  93 0050 00000000 		.word	DeviceDataPrv__DEFAULT_RTOS_ALLOC
  94 0054 80F00F40 		.word	1074786432
  95 0058 FFFEFFFF 		.word	-257
  96 005c 00B00440 		.word	1074049024
  97 0060 FFF8FFFE 		.word	-16779009
  98 0064 00000000 		.word	PE_LDD_DeviceDataList
  99              		.cfi_endproc
 100              	.LFE0:
 102              		.section	.text.BitIoLdd12_SetDir,"ax",%progbits
 103              		.align	2
 104              		.global	BitIoLdd12_SetDir
 105              		.code	16
 106              		.thumb_func
 108              	BitIoLdd12_SetDir:
 109              	.LFB1:
 149:../Generated_Code/BitIoLdd12.c **** /*
 150:../Generated_Code/BitIoLdd12.c **** ** ===================================================================
 151:../Generated_Code/BitIoLdd12.c **** **     Method      :  BitIoLdd12_SetDir (component BitIO_LDD)
 152:../Generated_Code/BitIoLdd12.c **** */
 153:../Generated_Code/BitIoLdd12.c **** /*!
 154:../Generated_Code/BitIoLdd12.c **** **     @brief
 155:../Generated_Code/BitIoLdd12.c **** **         Sets a pin direction (available only if the direction =
 156:../Generated_Code/BitIoLdd12.c **** **         _[input/output]_).
 157:../Generated_Code/BitIoLdd12.c **** **     @param
 158:../Generated_Code/BitIoLdd12.c **** **         DeviceDataPtr   - Device data structure
 159:../Generated_Code/BitIoLdd12.c **** **                           pointer returned by <Init> method.
 160:../Generated_Code/BitIoLdd12.c **** **     @param
 161:../Generated_Code/BitIoLdd12.c **** **         Dir             - Direction to set. Possible values:
 162:../Generated_Code/BitIoLdd12.c **** **                           <false> - Input
 163:../Generated_Code/BitIoLdd12.c **** **                           <true> - Output
 164:../Generated_Code/BitIoLdd12.c **** */
 165:../Generated_Code/BitIoLdd12.c **** /* ===================================================================*/
 166:../Generated_Code/BitIoLdd12.c **** void BitIoLdd12_SetDir(LDD_TDeviceData *DeviceDataPtr, bool Dir)
 167:../Generated_Code/BitIoLdd12.c **** {
 110              		.loc 1 167 0
 111              		.cfi_startproc
 112 0000 80B5     		push	{r7, lr}
 113              	.LCFI3:
 114              		.cfi_def_cfa_offset 8
 115              		.cfi_offset 7, -8
 116              		.cfi_offset 14, -4
 117 0002 82B0     		sub	sp, sp, #8
 118              	.LCFI4:
 119              		.cfi_def_cfa_offset 16
 120 0004 00AF     		add	r7, sp, #0
 121              	.LCFI5:
 122              		.cfi_def_cfa_register 7
 123 0006 7860     		str	r0, [r7, #4]
 124 0008 0A1C     		mov	r2, r1
 125 000a FB1C     		add	r3, r7, #3
 126 000c 1A70     		strb	r2, [r3]
 168:../Generated_Code/BitIoLdd12.c ****   (void)DeviceDataPtr;                 /* Parameter is not used, suppress unused argument warning *
 169:../Generated_Code/BitIoLdd12.c ****   if (Dir) {
 127              		.loc 1 169 0
 128 000e FB1C     		add	r3, r7, #3
 129 0010 1B78     		ldrb	r3, [r3]
 130 0012 002B     		cmp	r3, #0
 131 0014 07D0     		beq	.L6
 170:../Generated_Code/BitIoLdd12.c ****     /* Output */
 171:../Generated_Code/BitIoLdd12.c ****     GPIO_PDD_SetPortOutputDirectionMask(BitIoLdd12_MODULE_BASE_ADDRESS, BitIoLdd12_PORT_MASK);
 132              		.loc 1 171 0
 133 0016 084B     		ldr	r3, .L8
 134 0018 074A     		ldr	r2, .L8
 135 001a 5269     		ldr	r2, [r2, #20]
 136 001c 8021     		mov	r1, #128
 137 001e 4900     		lsl	r1, r1, #1
 138 0020 0A43     		orr	r2, r1
 139 0022 5A61     		str	r2, [r3, #20]
 140 0024 05E0     		b	.L5
 141              	.L6:
 172:../Generated_Code/BitIoLdd12.c ****   } else {
 173:../Generated_Code/BitIoLdd12.c ****     /* Input */
 174:../Generated_Code/BitIoLdd12.c ****     GPIO_PDD_SetPortInputDirectionMask(BitIoLdd12_MODULE_BASE_ADDRESS, BitIoLdd12_PORT_MASK);
 142              		.loc 1 174 0
 143 0026 044B     		ldr	r3, .L8
 144 0028 034A     		ldr	r2, .L8
 145 002a 5169     		ldr	r1, [r2, #20]
 146 002c 034A     		ldr	r2, .L8+4
 147 002e 0A40     		and	r2, r1
 148 0030 5A61     		str	r2, [r3, #20]
 149              	.L5:
 175:../Generated_Code/BitIoLdd12.c ****   }
 176:../Generated_Code/BitIoLdd12.c **** }
 150              		.loc 1 176 0
 151 0032 BD46     		mov	sp, r7
 152 0034 02B0     		add	sp, sp, #8
 153              		@ sp needed for prologue
 154 0036 80BD     		pop	{r7, pc}
 155              	.L9:
 156              		.align	2
 157              	.L8:
 158 0038 80F00FF8 		.word	-133173120
 159 003c FFFEFFFF 		.word	-257
 160              		.cfi_endproc
 161              	.LFE1:
 163              		.section	.text.BitIoLdd12_SetInput,"ax",%progbits
 164              		.align	2
 165              		.global	BitIoLdd12_SetInput
 166              		.code	16
 167              		.thumb_func
 169              	BitIoLdd12_SetInput:
 170              	.LFB2:
 177:../Generated_Code/BitIoLdd12.c **** 
 178:../Generated_Code/BitIoLdd12.c **** /*
 179:../Generated_Code/BitIoLdd12.c **** ** ===================================================================
 180:../Generated_Code/BitIoLdd12.c **** **     Method      :  BitIoLdd12_SetInput (component BitIO_LDD)
 181:../Generated_Code/BitIoLdd12.c **** */
 182:../Generated_Code/BitIoLdd12.c **** /*!
 183:../Generated_Code/BitIoLdd12.c **** **     @brief
 184:../Generated_Code/BitIoLdd12.c **** **         Sets a pin direction to input (available only if the
 185:../Generated_Code/BitIoLdd12.c **** **         direction = _[input/output]_).
 186:../Generated_Code/BitIoLdd12.c **** **     @param
 187:../Generated_Code/BitIoLdd12.c **** **         DeviceDataPtr   - Device data structure
 188:../Generated_Code/BitIoLdd12.c **** **                           pointer returned by <Init> method.
 189:../Generated_Code/BitIoLdd12.c **** */
 190:../Generated_Code/BitIoLdd12.c **** /* ===================================================================*/
 191:../Generated_Code/BitIoLdd12.c **** void BitIoLdd12_SetInput(LDD_TDeviceData *DeviceDataPtr)
 192:../Generated_Code/BitIoLdd12.c **** {
 171              		.loc 1 192 0
 172              		.cfi_startproc
 173 0000 80B5     		push	{r7, lr}
 174              	.LCFI6:
 175              		.cfi_def_cfa_offset 8
 176              		.cfi_offset 7, -8
 177              		.cfi_offset 14, -4
 178 0002 82B0     		sub	sp, sp, #8
 179              	.LCFI7:
 180              		.cfi_def_cfa_offset 16
 181 0004 00AF     		add	r7, sp, #0
 182              	.LCFI8:
 183              		.cfi_def_cfa_register 7
 184 0006 7860     		str	r0, [r7, #4]
 193:../Generated_Code/BitIoLdd12.c ****   (void)DeviceDataPtr;                 /* Parameter is not used, suppress unused argument warning *
 194:../Generated_Code/BitIoLdd12.c ****   GPIO_PDD_SetPortInputDirectionMask(BitIoLdd12_MODULE_BASE_ADDRESS, BitIoLdd12_PORT_MASK);
 185              		.loc 1 194 0
 186 0008 044B     		ldr	r3, .L11
 187 000a 044A     		ldr	r2, .L11
 188 000c 5169     		ldr	r1, [r2, #20]
 189 000e 044A     		ldr	r2, .L11+4
 190 0010 0A40     		and	r2, r1
 191 0012 5A61     		str	r2, [r3, #20]
 195:../Generated_Code/BitIoLdd12.c **** }
 192              		.loc 1 195 0
 193 0014 BD46     		mov	sp, r7
 194 0016 02B0     		add	sp, sp, #8
 195              		@ sp needed for prologue
 196 0018 80BD     		pop	{r7, pc}
 197              	.L12:
 198 001a C046     		.align	2
 199              	.L11:
 200 001c 80F00FF8 		.word	-133173120
 201 0020 FFFEFFFF 		.word	-257
 202              		.cfi_endproc
 203              	.LFE2:
 205              		.section	.text.BitIoLdd12_SetOutput,"ax",%progbits
 206              		.align	2
 207              		.global	BitIoLdd12_SetOutput
 208              		.code	16
 209              		.thumb_func
 211              	BitIoLdd12_SetOutput:
 212              	.LFB3:
 196:../Generated_Code/BitIoLdd12.c **** 
 197:../Generated_Code/BitIoLdd12.c **** /*
 198:../Generated_Code/BitIoLdd12.c **** ** ===================================================================
 199:../Generated_Code/BitIoLdd12.c **** **     Method      :  BitIoLdd12_SetOutput (component BitIO_LDD)
 200:../Generated_Code/BitIoLdd12.c **** */
 201:../Generated_Code/BitIoLdd12.c **** /*!
 202:../Generated_Code/BitIoLdd12.c **** **     @brief
 203:../Generated_Code/BitIoLdd12.c **** **         Sets a pin direction to output (available only if the
 204:../Generated_Code/BitIoLdd12.c **** **         direction = _[input/output]_).
 205:../Generated_Code/BitIoLdd12.c **** **     @param
 206:../Generated_Code/BitIoLdd12.c **** **         DeviceDataPtr   - Device data structure
 207:../Generated_Code/BitIoLdd12.c **** **                           pointer returned by <Init> method.
 208:../Generated_Code/BitIoLdd12.c **** */
 209:../Generated_Code/BitIoLdd12.c **** /* ===================================================================*/
 210:../Generated_Code/BitIoLdd12.c **** void BitIoLdd12_SetOutput(LDD_TDeviceData *DeviceDataPtr)
 211:../Generated_Code/BitIoLdd12.c **** {
 213              		.loc 1 211 0
 214              		.cfi_startproc
 215 0000 80B5     		push	{r7, lr}
 216              	.LCFI9:
 217              		.cfi_def_cfa_offset 8
 218              		.cfi_offset 7, -8
 219              		.cfi_offset 14, -4
 220 0002 82B0     		sub	sp, sp, #8
 221              	.LCFI10:
 222              		.cfi_def_cfa_offset 16
 223 0004 00AF     		add	r7, sp, #0
 224              	.LCFI11:
 225              		.cfi_def_cfa_register 7
 226 0006 7860     		str	r0, [r7, #4]
 212:../Generated_Code/BitIoLdd12.c ****   (void)DeviceDataPtr;                 /* Parameter is not used, suppress unused argument warning *
 213:../Generated_Code/BitIoLdd12.c ****   GPIO_PDD_SetPortOutputDirectionMask(BitIoLdd12_MODULE_BASE_ADDRESS, BitIoLdd12_PORT_MASK);
 227              		.loc 1 213 0
 228 0008 044B     		ldr	r3, .L14
 229 000a 044A     		ldr	r2, .L14
 230 000c 5269     		ldr	r2, [r2, #20]
 231 000e 8021     		mov	r1, #128
 232 0010 4900     		lsl	r1, r1, #1
 233 0012 0A43     		orr	r2, r1
 234 0014 5A61     		str	r2, [r3, #20]
 214:../Generated_Code/BitIoLdd12.c **** }
 235              		.loc 1 214 0
 236 0016 BD46     		mov	sp, r7
 237 0018 02B0     		add	sp, sp, #8
 238              		@ sp needed for prologue
 239 001a 80BD     		pop	{r7, pc}
 240              	.L15:
 241              		.align	2
 242              	.L14:
 243 001c 80F00FF8 		.word	-133173120
 244              		.cfi_endproc
 245              	.LFE3:
 247              		.section	.text.BitIoLdd12_GetVal,"ax",%progbits
 248              		.align	2
 249              		.global	BitIoLdd12_GetVal
 250              		.code	16
 251              		.thumb_func
 253              	BitIoLdd12_GetVal:
 254              	.LFB4:
 215:../Generated_Code/BitIoLdd12.c **** 
 216:../Generated_Code/BitIoLdd12.c **** /*
 217:../Generated_Code/BitIoLdd12.c **** ** ===================================================================
 218:../Generated_Code/BitIoLdd12.c **** **     Method      :  BitIoLdd12_GetVal (component BitIO_LDD)
 219:../Generated_Code/BitIoLdd12.c **** */
 220:../Generated_Code/BitIoLdd12.c **** /*!
 221:../Generated_Code/BitIoLdd12.c **** **     @brief
 222:../Generated_Code/BitIoLdd12.c **** **         Returns the input/output value. If the direction is [input]
 223:../Generated_Code/BitIoLdd12.c **** **         then the input value of the pin is read and returned. If the
 224:../Generated_Code/BitIoLdd12.c **** **         direction is [output] then the last written value is read
 225:../Generated_Code/BitIoLdd12.c **** **         and returned (see <Safe mode> property for limitations).
 226:../Generated_Code/BitIoLdd12.c **** **         This method cannot be disabled if direction is [input].
 227:../Generated_Code/BitIoLdd12.c **** **     @param
 228:../Generated_Code/BitIoLdd12.c **** **         DeviceDataPtr   - Device data structure
 229:../Generated_Code/BitIoLdd12.c **** **                           pointer returned by <Init> method.
 230:../Generated_Code/BitIoLdd12.c **** **     @return
 231:../Generated_Code/BitIoLdd12.c **** **                         - Input or output value. Possible values:
 232:../Generated_Code/BitIoLdd12.c **** **                           <false> - logical "0" (Low level)
 233:../Generated_Code/BitIoLdd12.c **** **                           <true> - logical "1" (High level)
 234:../Generated_Code/BitIoLdd12.c **** */
 235:../Generated_Code/BitIoLdd12.c **** /* ===================================================================*/
 236:../Generated_Code/BitIoLdd12.c **** bool BitIoLdd12_GetVal(LDD_TDeviceData *DeviceDataPtr)
 237:../Generated_Code/BitIoLdd12.c **** {
 255              		.loc 1 237 0
 256              		.cfi_startproc
 257 0000 80B5     		push	{r7, lr}
 258              	.LCFI12:
 259              		.cfi_def_cfa_offset 8
 260              		.cfi_offset 7, -8
 261              		.cfi_offset 14, -4
 262 0002 84B0     		sub	sp, sp, #16
 263              	.LCFI13:
 264              		.cfi_def_cfa_offset 24
 265 0004 00AF     		add	r7, sp, #0
 266              	.LCFI14:
 267              		.cfi_def_cfa_register 7
 268 0006 7860     		str	r0, [r7, #4]
 238:../Generated_Code/BitIoLdd12.c ****   uint32_t PortData;                   /* Port data masked according to the bit used */
 239:../Generated_Code/BitIoLdd12.c **** 
 240:../Generated_Code/BitIoLdd12.c ****   (void)DeviceDataPtr;                 /* Parameter is not used, suppress unused argument warning *
 241:../Generated_Code/BitIoLdd12.c ****   if ((GPIO_PDD_GetPortDirection(BitIoLdd12_MODULE_BASE_ADDRESS) & BitIoLdd12_PORT_MASK) == 0U) {
 269              		.loc 1 241 0
 270 0008 0D4B     		ldr	r3, .L20
 271 000a 5A69     		ldr	r2, [r3, #20]
 272 000c 8023     		mov	r3, #128
 273 000e 5B00     		lsl	r3, r3, #1
 274 0010 1340     		and	r3, r2
 275 0012 06D1     		bne	.L17
 242:../Generated_Code/BitIoLdd12.c ****     /* Port is configured as input */
 243:../Generated_Code/BitIoLdd12.c ****     PortData = GPIO_PDD_GetPortDataInput(BitIoLdd12_MODULE_BASE_ADDRESS) & BitIoLdd12_PORT_MASK;
 276              		.loc 1 243 0
 277 0014 0A4B     		ldr	r3, .L20
 278 0016 1A69     		ldr	r2, [r3, #16]
 279 0018 8023     		mov	r3, #128
 280 001a 5B00     		lsl	r3, r3, #1
 281 001c 1340     		and	r3, r2
 282 001e FB60     		str	r3, [r7, #12]
 283 0020 05E0     		b	.L18
 284              	.L17:
 244:../Generated_Code/BitIoLdd12.c ****   } else {
 245:../Generated_Code/BitIoLdd12.c ****     /* Port is configured as output */
 246:../Generated_Code/BitIoLdd12.c ****     PortData = GPIO_PDD_GetPortDataOutput(BitIoLdd12_MODULE_BASE_ADDRESS) & BitIoLdd12_PORT_MASK;
 285              		.loc 1 246 0
 286 0022 074B     		ldr	r3, .L20
 287 0024 1A68     		ldr	r2, [r3]
 288 0026 8023     		mov	r3, #128
 289 0028 5B00     		lsl	r3, r3, #1
 290 002a 1340     		and	r3, r2
 291 002c FB60     		str	r3, [r7, #12]
 292              	.L18:
 247:../Generated_Code/BitIoLdd12.c ****   }
 248:../Generated_Code/BitIoLdd12.c ****   return (PortData != 0U) ? (bool)TRUE : (bool)FALSE;
 293              		.loc 1 248 0
 294 002e FB68     		ldr	r3, [r7, #12]
 295 0030 5A1E     		sub	r2, r3, #1
 296 0032 9341     		sbc	r3, r3, r2
 297 0034 DBB2     		uxtb	r3, r3
 249:../Generated_Code/BitIoLdd12.c **** }
 298              		.loc 1 249 0
 299 0036 181C     		mov	r0, r3
 300 0038 BD46     		mov	sp, r7
 301 003a 04B0     		add	sp, sp, #16
 302              		@ sp needed for prologue
 303 003c 80BD     		pop	{r7, pc}
 304              	.L21:
 305 003e C046     		.align	2
 306              	.L20:
 307 0040 80F00FF8 		.word	-133173120
 308              		.cfi_endproc
 309              	.LFE4:
 311              		.section	.text.BitIoLdd12_PutVal,"ax",%progbits
 312              		.align	2
 313              		.global	BitIoLdd12_PutVal
 314              		.code	16
 315              		.thumb_func
 317              	BitIoLdd12_PutVal:
 318              	.LFB5:
 250:../Generated_Code/BitIoLdd12.c **** 
 251:../Generated_Code/BitIoLdd12.c **** /*
 252:../Generated_Code/BitIoLdd12.c **** ** ===================================================================
 253:../Generated_Code/BitIoLdd12.c **** **     Method      :  BitIoLdd12_PutVal (component BitIO_LDD)
 254:../Generated_Code/BitIoLdd12.c **** */
 255:../Generated_Code/BitIoLdd12.c **** /*!
 256:../Generated_Code/BitIoLdd12.c **** **     @brief
 257:../Generated_Code/BitIoLdd12.c **** **         The specified output value is set. If the direction is <b>
 258:../Generated_Code/BitIoLdd12.c **** **         input</b>, the component saves the value to a memory or a
 259:../Generated_Code/BitIoLdd12.c **** **         register and this value will be written to the pin after
 260:../Generated_Code/BitIoLdd12.c **** **         switching to the output mode (using <tt>SetDir(TRUE)</tt>;
 261:../Generated_Code/BitIoLdd12.c **** **         see <a href="BitIOProperties.html#SafeMode">Safe mode</a>
 262:../Generated_Code/BitIoLdd12.c **** **         property for limitations). If the direction is <b>output</b>,
 263:../Generated_Code/BitIoLdd12.c **** **         it writes the value to the pin. (Method is available only if
 264:../Generated_Code/BitIoLdd12.c **** **         the direction = <u><tt>output</tt></u> or <u><tt>
 265:../Generated_Code/BitIoLdd12.c **** **         input/output</tt></u>).
 266:../Generated_Code/BitIoLdd12.c **** **     @param
 267:../Generated_Code/BitIoLdd12.c **** **         DeviceDataPtr   - Device data structure
 268:../Generated_Code/BitIoLdd12.c **** **                           pointer returned by <Init> method.
 269:../Generated_Code/BitIoLdd12.c **** **     @param
 270:../Generated_Code/BitIoLdd12.c **** **         Val             - Output value. Possible values:
 271:../Generated_Code/BitIoLdd12.c **** **                           <false> - logical "0" (Low level)
 272:../Generated_Code/BitIoLdd12.c **** **                           <true> - logical "1" (High level)
 273:../Generated_Code/BitIoLdd12.c **** */
 274:../Generated_Code/BitIoLdd12.c **** /* ===================================================================*/
 275:../Generated_Code/BitIoLdd12.c **** void BitIoLdd12_PutVal(LDD_TDeviceData *DeviceDataPtr, bool Val)
 276:../Generated_Code/BitIoLdd12.c **** {
 319              		.loc 1 276 0
 320              		.cfi_startproc
 321 0000 80B5     		push	{r7, lr}
 322              	.LCFI15:
 323              		.cfi_def_cfa_offset 8
 324              		.cfi_offset 7, -8
 325              		.cfi_offset 14, -4
 326 0002 82B0     		sub	sp, sp, #8
 327              	.LCFI16:
 328              		.cfi_def_cfa_offset 16
 329 0004 00AF     		add	r7, sp, #0
 330              	.LCFI17:
 331              		.cfi_def_cfa_register 7
 332 0006 7860     		str	r0, [r7, #4]
 333 0008 0A1C     		mov	r2, r1
 334 000a FB1C     		add	r3, r7, #3
 335 000c 1A70     		strb	r2, [r3]
 277:../Generated_Code/BitIoLdd12.c ****   (void)DeviceDataPtr;                 /* Parameter is not used, suppress unused argument warning *
 278:../Generated_Code/BitIoLdd12.c ****   if (Val) {
 336              		.loc 1 278 0
 337 000e FB1C     		add	r3, r7, #3
 338 0010 1B78     		ldrb	r3, [r3]
 339 0012 002B     		cmp	r3, #0
 340 0014 04D0     		beq	.L23
 279:../Generated_Code/BitIoLdd12.c ****     GPIO_PDD_SetPortDataOutputMask(BitIoLdd12_MODULE_BASE_ADDRESS, BitIoLdd12_PORT_MASK);
 341              		.loc 1 279 0
 342 0016 064B     		ldr	r3, .L25
 343 0018 8022     		mov	r2, #128
 344 001a 5200     		lsl	r2, r2, #1
 345 001c 5A60     		str	r2, [r3, #4]
 346 001e 03E0     		b	.L22
 347              	.L23:
 280:../Generated_Code/BitIoLdd12.c ****   } else { /* !Val */
 281:../Generated_Code/BitIoLdd12.c ****     GPIO_PDD_ClearPortDataOutputMask(BitIoLdd12_MODULE_BASE_ADDRESS, BitIoLdd12_PORT_MASK);
 348              		.loc 1 281 0
 349 0020 034B     		ldr	r3, .L25
 350 0022 8022     		mov	r2, #128
 351 0024 5200     		lsl	r2, r2, #1
 352 0026 9A60     		str	r2, [r3, #8]
 353              	.L22:
 282:../Generated_Code/BitIoLdd12.c ****   } /* !Val */
 283:../Generated_Code/BitIoLdd12.c **** }
 354              		.loc 1 283 0
 355 0028 BD46     		mov	sp, r7
 356 002a 02B0     		add	sp, sp, #8
 357              		@ sp needed for prologue
 358 002c 80BD     		pop	{r7, pc}
 359              	.L26:
 360 002e C046     		.align	2
 361              	.L25:
 362 0030 80F00FF8 		.word	-133173120
 363              		.cfi_endproc
 364              	.LFE5:
 366              		.section	.text.BitIoLdd12_ClrVal,"ax",%progbits
 367              		.align	2
 368              		.global	BitIoLdd12_ClrVal
 369              		.code	16
 370              		.thumb_func
 372              	BitIoLdd12_ClrVal:
 373              	.LFB6:
 284:../Generated_Code/BitIoLdd12.c **** 
 285:../Generated_Code/BitIoLdd12.c **** /*
 286:../Generated_Code/BitIoLdd12.c **** ** ===================================================================
 287:../Generated_Code/BitIoLdd12.c **** **     Method      :  BitIoLdd12_ClrVal (component BitIO_LDD)
 288:../Generated_Code/BitIoLdd12.c **** */
 289:../Generated_Code/BitIoLdd12.c **** /*!
 290:../Generated_Code/BitIoLdd12.c **** **     @brief
 291:../Generated_Code/BitIoLdd12.c **** **         Clears (set to zero) the output value. It is equivalent to
 292:../Generated_Code/BitIoLdd12.c **** **         the [PutVal(FALSE)]. This method is available only if the
 293:../Generated_Code/BitIoLdd12.c **** **         direction = _[output]_ or _[input/output]_.
 294:../Generated_Code/BitIoLdd12.c **** **     @param
 295:../Generated_Code/BitIoLdd12.c **** **         DeviceDataPtr   - Pointer to device data
 296:../Generated_Code/BitIoLdd12.c **** **                           structure returned by <Init> method.
 297:../Generated_Code/BitIoLdd12.c **** */
 298:../Generated_Code/BitIoLdd12.c **** /* ===================================================================*/
 299:../Generated_Code/BitIoLdd12.c **** void BitIoLdd12_ClrVal(LDD_TDeviceData *DeviceDataPtr)
 300:../Generated_Code/BitIoLdd12.c **** {
 374              		.loc 1 300 0
 375              		.cfi_startproc
 376 0000 80B5     		push	{r7, lr}
 377              	.LCFI18:
 378              		.cfi_def_cfa_offset 8
 379              		.cfi_offset 7, -8
 380              		.cfi_offset 14, -4
 381 0002 82B0     		sub	sp, sp, #8
 382              	.LCFI19:
 383              		.cfi_def_cfa_offset 16
 384 0004 00AF     		add	r7, sp, #0
 385              	.LCFI20:
 386              		.cfi_def_cfa_register 7
 387 0006 7860     		str	r0, [r7, #4]
 301:../Generated_Code/BitIoLdd12.c ****   (void)DeviceDataPtr;                 /* Parameter is not used, suppress unused argument warning *
 302:../Generated_Code/BitIoLdd12.c ****   GPIO_PDD_ClearPortDataOutputMask(BitIoLdd12_MODULE_BASE_ADDRESS, BitIoLdd12_PORT_MASK);
 388              		.loc 1 302 0
 389 0008 034B     		ldr	r3, .L28
 390 000a 8022     		mov	r2, #128
 391 000c 5200     		lsl	r2, r2, #1
 392 000e 9A60     		str	r2, [r3, #8]
 303:../Generated_Code/BitIoLdd12.c **** }
 393              		.loc 1 303 0
 394 0010 BD46     		mov	sp, r7
 395 0012 02B0     		add	sp, sp, #8
 396              		@ sp needed for prologue
 397 0014 80BD     		pop	{r7, pc}
 398              	.L29:
 399 0016 C046     		.align	2
 400              	.L28:
 401 0018 80F00FF8 		.word	-133173120
 402              		.cfi_endproc
 403              	.LFE6:
 405              		.section	.text.BitIoLdd12_SetVal,"ax",%progbits
 406              		.align	2
 407              		.global	BitIoLdd12_SetVal
 408              		.code	16
 409              		.thumb_func
 411              	BitIoLdd12_SetVal:
 412              	.LFB7:
 304:../Generated_Code/BitIoLdd12.c **** 
 305:../Generated_Code/BitIoLdd12.c **** /*
 306:../Generated_Code/BitIoLdd12.c **** ** ===================================================================
 307:../Generated_Code/BitIoLdd12.c **** **     Method      :  BitIoLdd12_SetVal (component BitIO_LDD)
 308:../Generated_Code/BitIoLdd12.c **** */
 309:../Generated_Code/BitIoLdd12.c **** /*!
 310:../Generated_Code/BitIoLdd12.c **** **     @brief
 311:../Generated_Code/BitIoLdd12.c **** **         Sets (to one) the output value. It is equivalent to the
 312:../Generated_Code/BitIoLdd12.c **** **         [PutVal(TRUE)]. This method is available only if the
 313:../Generated_Code/BitIoLdd12.c **** **         direction = _[output]_ or _[input/output]_.
 314:../Generated_Code/BitIoLdd12.c **** **     @param
 315:../Generated_Code/BitIoLdd12.c **** **         DeviceDataPtr   - Pointer to device data
 316:../Generated_Code/BitIoLdd12.c **** **                           structure returned by <Init> method.
 317:../Generated_Code/BitIoLdd12.c **** */
 318:../Generated_Code/BitIoLdd12.c **** /* ===================================================================*/
 319:../Generated_Code/BitIoLdd12.c **** void BitIoLdd12_SetVal(LDD_TDeviceData *DeviceDataPtr)
 320:../Generated_Code/BitIoLdd12.c **** {
 413              		.loc 1 320 0
 414              		.cfi_startproc
 415 0000 80B5     		push	{r7, lr}
 416              	.LCFI21:
 417              		.cfi_def_cfa_offset 8
 418              		.cfi_offset 7, -8
 419              		.cfi_offset 14, -4
 420 0002 82B0     		sub	sp, sp, #8
 421              	.LCFI22:
 422              		.cfi_def_cfa_offset 16
 423 0004 00AF     		add	r7, sp, #0
 424              	.LCFI23:
 425              		.cfi_def_cfa_register 7
 426 0006 7860     		str	r0, [r7, #4]
 321:../Generated_Code/BitIoLdd12.c ****   (void)DeviceDataPtr;                 /* Parameter is not used, suppress unused argument warning *
 322:../Generated_Code/BitIoLdd12.c ****   GPIO_PDD_SetPortDataOutputMask(BitIoLdd12_MODULE_BASE_ADDRESS, BitIoLdd12_PORT_MASK);
 427              		.loc 1 322 0
 428 0008 034B     		ldr	r3, .L31
 429 000a 8022     		mov	r2, #128
 430 000c 5200     		lsl	r2, r2, #1
 431 000e 5A60     		str	r2, [r3, #4]
 323:../Generated_Code/BitIoLdd12.c **** }
 432              		.loc 1 323 0
 433 0010 BD46     		mov	sp, r7
 434 0012 02B0     		add	sp, sp, #8
 435              		@ sp needed for prologue
 436 0014 80BD     		pop	{r7, pc}
 437              	.L32:
 438 0016 C046     		.align	2
 439              	.L31:
 440 0018 80F00FF8 		.word	-133173120
 441              		.cfi_endproc
 442              	.LFE7:
 444              		.text
 445              	.Letext0:
 446              		.file 2 "C:/Freescale/CW MCU v10.7/MCU/ARM_GCC_Support/ewl/EWL_C/include/cstdint"
 447              		.file 3 "../Generated_Code/PE_Types.h"
 448              		.file 4 "C:/Freescale/CW MCU v10.7/MCU/ProcessorExpert/lib/Kinetis/iofiles/MKL25Z4.h"