   1              		.cpu cortex-m0
   2              		.fpu softvfp
   3              		.eabi_attribute 20, 1
   4              		.eabi_attribute 21, 1
   5              		.eabi_attribute 23, 3
   6              		.eabi_attribute 24, 1
   7              		.eabi_attribute 25, 1
   8              		.eabi_attribute 26, 1
   9              		.eabi_attribute 30, 6
  10              		.eabi_attribute 34, 0
  11              		.eabi_attribute 18, 4
  12              		.code	16
  13              		.file	"UTIL1.c"
  14              		.text
  15              	.Ltext0:
  16              		.cfi_sections	.debug_frame
  17              		.section	.text.UTIL1_strcpy,"ax",%progbits
  18              		.align	2
  19              		.global	UTIL1_strcpy
  20              		.code	16
  21              		.thumb_func
  23              	UTIL1_strcpy:
  24              	.LFB0:
  25              		.file 1 "../Generated_Code/UTIL1.c"
   1:../Generated_Code/UTIL1.c **** /* ###################################################################
   2:../Generated_Code/UTIL1.c **** **     This component module is generated by Processor Expert. Do not modify it.
   3:../Generated_Code/UTIL1.c **** **     Filename    : UTIL1.c
   4:../Generated_Code/UTIL1.c **** **     Project     : ProcessorExpert
   5:../Generated_Code/UTIL1.c **** **     Processor   : MKL25Z128VLK4
   6:../Generated_Code/UTIL1.c **** **     Component   : Utility
   7:../Generated_Code/UTIL1.c **** **     Version     : Component 01.157, Driver 01.00, CPU db: 3.00.000
   8:../Generated_Code/UTIL1.c **** **     Compiler    : GNU C Compiler
   9:../Generated_Code/UTIL1.c **** **     Date/Time   : 2017-12-17, 19:56, # CodeGen: 44
  10:../Generated_Code/UTIL1.c **** **     Abstract    :
  11:../Generated_Code/UTIL1.c **** **          Contains various utility functions.
  12:../Generated_Code/UTIL1.c **** **     Settings    :
  13:../Generated_Code/UTIL1.c **** **          Component name                                 : UTIL1
  14:../Generated_Code/UTIL1.c **** **     Contents    :
  15:../Generated_Code/UTIL1.c **** **         strcpy                  - void UTIL1_strcpy(uint8_t *dst, size_t dstSize, const unsigned
  16:../Generated_Code/UTIL1.c **** **         strcat                  - void UTIL1_strcat(uint8_t *dst, size_t dstSize, const unsigned
  17:../Generated_Code/UTIL1.c **** **         strcatPad               - void UTIL1_strcatPad(uint8_t *dst, size_t dstSize, const unsig
  18:../Generated_Code/UTIL1.c **** **         chcat                   - void UTIL1_chcat(uint8_t *dst, size_t dstSize, uint8_t ch);
  19:../Generated_Code/UTIL1.c **** **         Num8sToStr              - void UTIL1_Num8sToStr(uint8_t *dst, size_t dstSize, signed cha
  20:../Generated_Code/UTIL1.c **** **         Num8uToStr              - void UTIL1_Num8uToStr(uint8_t *dst, size_t dstSize, uint8_t va
  21:../Generated_Code/UTIL1.c **** **         Num16sToStr             - void UTIL1_Num16sToStr(uint8_t *dst, size_t dstSize, int16_t v
  22:../Generated_Code/UTIL1.c **** **         Num16uToStr             - void UTIL1_Num16uToStr(uint8_t *dst, size_t dstSize, uint16_t 
  23:../Generated_Code/UTIL1.c **** **         Num32uToStr             - void UTIL1_Num32uToStr(uint8_t *dst, size_t dstSize, uint32_t 
  24:../Generated_Code/UTIL1.c **** **         Num32sToStr             - void UTIL1_Num32sToStr(uint8_t *dst, size_t dstSize, int32_t v
  25:../Generated_Code/UTIL1.c **** **         NumFloatToStr           - void UTIL1_NumFloatToStr(uint8_t *dst, size_t dstSize, float v
  26:../Generated_Code/UTIL1.c **** **         Num16sToStrFormatted    - void UTIL1_Num16sToStrFormatted(uint8_t *dst, size_t dstSize, 
  27:../Generated_Code/UTIL1.c **** **         Num16uToStrFormatted    - void UTIL1_Num16uToStrFormatted(uint8_t *dst, size_t dstSize, 
  28:../Generated_Code/UTIL1.c **** **         Num32uToStrFormatted    - void UTIL1_Num32uToStrFormatted(uint8_t *dst, size_t dstSize, 
  29:../Generated_Code/UTIL1.c **** **         Num32sToStrFormatted    - void UTIL1_Num32sToStrFormatted(uint8_t *dst, size_t dstSize, 
  30:../Generated_Code/UTIL1.c **** **         strcatNum8u             - void UTIL1_strcatNum8u(uint8_t *dst, size_t dstSize, uint8_t v
  31:../Generated_Code/UTIL1.c **** **         strcatNum8s             - void UTIL1_strcatNum8s(uint8_t *dst, size_t dstSize, signed ch
  32:../Generated_Code/UTIL1.c **** **         strcatNum16u            - void UTIL1_strcatNum16u(uint8_t *dst, size_t dstSize, uint16_t
  33:../Generated_Code/UTIL1.c **** **         strcatNum16s            - void UTIL1_strcatNum16s(uint8_t *dst, size_t dstSize, int16_t 
  34:../Generated_Code/UTIL1.c **** **         strcatNum32u            - void UTIL1_strcatNum32u(uint8_t *dst, size_t dstSize, uint32_t
  35:../Generated_Code/UTIL1.c **** **         strcatNum32s            - void UTIL1_strcatNum32s(uint8_t *dst, size_t dstSize, int32_t 
  36:../Generated_Code/UTIL1.c **** **         strcatNum16uFormatted   - void UTIL1_strcatNum16uFormatted(uint8_t *dst, size_t dstSize,
  37:../Generated_Code/UTIL1.c **** **         strcatNum16sFormatted   - void UTIL1_strcatNum16sFormatted(uint8_t *dst, size_t dstSize,
  38:../Generated_Code/UTIL1.c **** **         strcatNum32uFormatted   - void UTIL1_strcatNum32uFormatted(uint8_t *dst, size_t dstSize,
  39:../Generated_Code/UTIL1.c **** **         strcatNum32sFormatted   - void UTIL1_strcatNum32sFormatted(uint8_t *dst, size_t dstSize,
  40:../Generated_Code/UTIL1.c **** **         strcatNum8Hex           - void UTIL1_strcatNum8Hex(uint8_t *dst, size_t dstSize, uint8_t
  41:../Generated_Code/UTIL1.c **** **         strcatNum16Hex          - void UTIL1_strcatNum16Hex(uint8_t *dst, size_t dstSize, uint16
  42:../Generated_Code/UTIL1.c **** **         strcatNum24Hex          - void UTIL1_strcatNum24Hex(uint8_t *dst, size_t dstSize, uint32
  43:../Generated_Code/UTIL1.c **** **         strcatNum32Hex          - void UTIL1_strcatNum32Hex(uint8_t *dst, size_t dstSize, uint32
  44:../Generated_Code/UTIL1.c **** **         strcatNum32sDotValue100 - void UTIL1_strcatNum32sDotValue100(uint8_t *dst, size_t dstSiz
  45:../Generated_Code/UTIL1.c **** **         strcatNumFloat          - void UTIL1_strcatNumFloat(uint8_t *dst, size_t dstSize, float 
  46:../Generated_Code/UTIL1.c **** **         IsLeapYear              - bool UTIL1_IsLeapYear(uint16_t year);
  47:../Generated_Code/UTIL1.c **** **         WeekDay                 - uint8_t UTIL1_WeekDay(uint16_t year, uint8_t month, uint8_t da
  48:../Generated_Code/UTIL1.c **** **         ReadEscapedName         - uint8_t UTIL1_ReadEscapedName(const unsigned char *filename, u
  49:../Generated_Code/UTIL1.c **** **         xatoi                   - uint8_t UTIL1_xatoi(const unsigned char **str, int32_t *res);
  50:../Generated_Code/UTIL1.c **** **         ScanDate                - uint8_t UTIL1_ScanDate(const unsigned char **str, uint8_t *day
  51:../Generated_Code/UTIL1.c **** **         ScanTime                - uint8_t UTIL1_ScanTime(const unsigned char **str, uint8_t *hou
  52:../Generated_Code/UTIL1.c **** **         ScanDecimal8uNumber     - uint8_t UTIL1_ScanDecimal8uNumber(const unsigned char **str, u
  53:../Generated_Code/UTIL1.c **** **         ScanDecimal8sNumber     - uint8_t UTIL1_ScanDecimal8sNumber(const unsigned char **str, s
  54:../Generated_Code/UTIL1.c **** **         ScanDecimal16uNumber    - uint8_t UTIL1_ScanDecimal16uNumber(const unsigned char **str, 
  55:../Generated_Code/UTIL1.c **** **         ScanDecimal16sNumber    - uint8_t UTIL1_ScanDecimal16sNumber(const unsigned char **str, 
  56:../Generated_Code/UTIL1.c **** **         ScanDecimal32uNumber    - uint8_t UTIL1_ScanDecimal32uNumber(const unsigned char **str, 
  57:../Generated_Code/UTIL1.c **** **         ScanDecimal32sNumber    - uint8_t UTIL1_ScanDecimal32sNumber(const unsigned char **str, 
  58:../Generated_Code/UTIL1.c **** **         ScanDecimal32sDotNumber - uint8_t UTIL1_ScanDecimal32sDotNumber(const unsigned char **st
  59:../Generated_Code/UTIL1.c **** **         ScanHex8uNumber         - uint8_t UTIL1_ScanHex8uNumber(const unsigned char **str, uint8
  60:../Generated_Code/UTIL1.c **** **         ScanHex8uNumberNoPrefix - uint8_t UTIL1_ScanHex8uNumberNoPrefix(const unsigned char **st
  61:../Generated_Code/UTIL1.c **** **         ScanHex16uNumber        - uint8_t UTIL1_ScanHex16uNumber(const unsigned char **str, uint
  62:../Generated_Code/UTIL1.c **** **         ScanHex32uNumber        - uint8_t UTIL1_ScanHex32uNumber(const unsigned char **str, uint
  63:../Generated_Code/UTIL1.c **** **         ScanSeparatedNumbers    - uint8_t UTIL1_ScanSeparatedNumbers(const unsigned char **str, 
  64:../Generated_Code/UTIL1.c **** **         ScanDoubleQuotedString  - uint8_t UTIL1_ScanDoubleQuotedString(const uint8_t **cmd, uint
  65:../Generated_Code/UTIL1.c **** **         strcmp                  - int16_t UTIL1_strcmp(const char *, const char *);
  66:../Generated_Code/UTIL1.c **** **         strncmp                 - int16_t UTIL1_strncmp(const char *, const char *, size_t size)
  67:../Generated_Code/UTIL1.c **** **         strFind                 - int16_t UTIL1_strFind(uint8_t *str, uint8_t *subStr);
  68:../Generated_Code/UTIL1.c **** **         strtailcmp              - uint8_t UTIL1_strtailcmp(const uint8_t *str, const uint8_t *ta
  69:../Generated_Code/UTIL1.c **** **         strlen                  - uint16_t UTIL1_strlen(const char *);
  70:../Generated_Code/UTIL1.c **** **         strCutTail              - uint8_t UTIL1_strCutTail(uint8_t *str, uint8_t *tail);
  71:../Generated_Code/UTIL1.c **** **         GetValue16LE            - uint16_t UTIL1_GetValue16LE(uint8_t *dataP);
  72:../Generated_Code/UTIL1.c **** **         GetValue24LE            - uint32_t UTIL1_GetValue24LE(uint8_t *dataP);
  73:../Generated_Code/UTIL1.c **** **         GetValue32LE            - uint32_t UTIL1_GetValue32LE(uint8_t *dataP);
  74:../Generated_Code/UTIL1.c **** **         SetValue16LE            - void UTIL1_SetValue16LE(uint16_t data, uint8_t *dataP);
  75:../Generated_Code/UTIL1.c **** **         SetValue24LE            - void UTIL1_SetValue24LE(uint32_t data, uint8_t *dataP);
  76:../Generated_Code/UTIL1.c **** **         SetValue32LE            - void UTIL1_SetValue32LE(uint32_t data, uint8_t *dataP);
  77:../Generated_Code/UTIL1.c **** **         map                     - int32_t UTIL1_map(int32_t x, int32_t in_min, int32_t in_max, i
  78:../Generated_Code/UTIL1.c **** **         map64                   - int64_t UTIL1_map64(int64_t x, int64_t in_min, int64_t in_max,
  79:../Generated_Code/UTIL1.c **** **         constrain               - int32_t UTIL1_constrain(int32_t val, int32_t min, int32_t max)
  80:../Generated_Code/UTIL1.c **** **         random                  - int32_t UTIL1_random(int32_t min, int32_t max);
  81:../Generated_Code/UTIL1.c **** **         randomSetSeed           - void UTIL1_randomSetSeed(unsigned int seed);
  82:../Generated_Code/UTIL1.c **** **         Deinit                  - void UTIL1_Deinit(void);
  83:../Generated_Code/UTIL1.c **** **         Init                    - void UTIL1_Init(void);
  84:../Generated_Code/UTIL1.c **** **
  85:../Generated_Code/UTIL1.c **** **     * Copyright (c) 2014-2017, Erich Styger
  86:../Generated_Code/UTIL1.c **** **      * Web:         https://mcuoneclipse.com
  87:../Generated_Code/UTIL1.c **** **      * SourceForge: https://sourceforge.net/projects/mcuoneclipse
  88:../Generated_Code/UTIL1.c **** **      * Git:         https://github.com/ErichStyger/McuOnEclipse_PEx
  89:../Generated_Code/UTIL1.c **** **      * All rights reserved.
  90:../Generated_Code/UTIL1.c **** **      *
  91:../Generated_Code/UTIL1.c **** **      * Redistribution and use in source and binary forms, with or without modification,
  92:../Generated_Code/UTIL1.c **** **      * are permitted provided that the following conditions are met:
  93:../Generated_Code/UTIL1.c **** **      *
  94:../Generated_Code/UTIL1.c **** **      * - Redistributions of source code must retain the above copyright notice, this list
  95:../Generated_Code/UTIL1.c **** **      *   of conditions and the following disclaimer.
  96:../Generated_Code/UTIL1.c **** **      *
  97:../Generated_Code/UTIL1.c **** **      * - Redistributions in binary form must reproduce the above copyright notice, this
  98:../Generated_Code/UTIL1.c **** **      *   list of conditions and the following disclaimer in the documentation and/or
  99:../Generated_Code/UTIL1.c **** **      *   other materials provided with the distribution.
 100:../Generated_Code/UTIL1.c **** **      *
 101:../Generated_Code/UTIL1.c **** **      * THIS SOFTWARE IS PROVIDED BY THE COPYRIGHT HOLDERS AND CONTRIBUTORS "AS IS" AND
 102:../Generated_Code/UTIL1.c **** **      * ANY EXPRESS OR IMPLIED WARRANTIES, INCLUDING, BUT NOT LIMITED TO, THE IMPLIED
 103:../Generated_Code/UTIL1.c **** **      * WARRANTIES OF MERCHANTABILITY AND FITNESS FOR A PARTICULAR PURPOSE ARE
 104:../Generated_Code/UTIL1.c **** **      * DISCLAIMED. IN NO EVENT SHALL THE COPYRIGHT HOLDER OR CONTRIBUTORS BE LIABLE FOR
 105:../Generated_Code/UTIL1.c **** **      * ANY DIRECT, INDIRECT, INCIDENTAL, SPECIAL, EXEMPLARY, OR CONSEQUENTIAL DAMAGES
 106:../Generated_Code/UTIL1.c **** **      * (INCLUDING, BUT NOT LIMITED TO, PROCUREMENT OF SUBSTITUTE GOODS OR SERVICES;
 107:../Generated_Code/UTIL1.c **** **      * LOSS OF USE, DATA, OR PROFITS; OR BUSINESS INTERRUPTION) HOWEVER CAUSED AND ON
 108:../Generated_Code/UTIL1.c **** **      * ANY THEORY OF LIABILITY, WHETHER IN CONTRACT, STRICT LIABILITY, OR TORT
 109:../Generated_Code/UTIL1.c **** **      * (INCLUDING NEGLIGENCE OR OTHERWISE) ARISING IN ANY WAY OUT OF THE USE OF THIS
 110:../Generated_Code/UTIL1.c **** **      * SOFTWARE, EVEN IF ADVISED OF THE POSSIBILITY OF SUCH DAMAGE.
 111:../Generated_Code/UTIL1.c **** ** ###################################################################*/
 112:../Generated_Code/UTIL1.c **** /*!
 113:../Generated_Code/UTIL1.c **** ** @file UTIL1.c
 114:../Generated_Code/UTIL1.c **** ** @version 01.00
 115:../Generated_Code/UTIL1.c **** ** @brief
 116:../Generated_Code/UTIL1.c **** **          Contains various utility functions.
 117:../Generated_Code/UTIL1.c **** */         
 118:../Generated_Code/UTIL1.c **** /*!
 119:../Generated_Code/UTIL1.c **** **  @addtogroup UTIL1_module UTIL1 module documentation
 120:../Generated_Code/UTIL1.c **** **  @{
 121:../Generated_Code/UTIL1.c **** */         
 122:../Generated_Code/UTIL1.c **** 
 123:../Generated_Code/UTIL1.c **** /* MODULE UTIL1. */
 124:../Generated_Code/UTIL1.c **** 
 125:../Generated_Code/UTIL1.c **** #include "UTIL1.h"
 126:../Generated_Code/UTIL1.c **** #include <stdlib.h> /* for rand() */
 127:../Generated_Code/UTIL1.c **** 
 128:../Generated_Code/UTIL1.c **** /* Internal method prototypes */
 129:../Generated_Code/UTIL1.c **** static void ShiftRightAndFill(uint8_t *dst, uint8_t fill, uint8_t nofFill);
 130:../Generated_Code/UTIL1.c **** 
 131:../Generated_Code/UTIL1.c **** /*
 132:../Generated_Code/UTIL1.c **** ** ===================================================================
 133:../Generated_Code/UTIL1.c **** **     Method      :  UTIL1_strcpy (component Utility)
 134:../Generated_Code/UTIL1.c **** **     Description :
 135:../Generated_Code/UTIL1.c **** **         Same as normal strcpy, but safe as it does not write beyond
 136:../Generated_Code/UTIL1.c **** **         the buffer.
 137:../Generated_Code/UTIL1.c **** **     Parameters  :
 138:../Generated_Code/UTIL1.c **** **         NAME            - DESCRIPTION
 139:../Generated_Code/UTIL1.c **** **       * dst             - Pointer to destination string
 140:../Generated_Code/UTIL1.c **** **         dstSize         - Size of the destination buffer (in
 141:../Generated_Code/UTIL1.c **** **                           bytes).
 142:../Generated_Code/UTIL1.c **** **       * src             - Pointer to source string.
 143:../Generated_Code/UTIL1.c **** **     Returns     : Nothing
 144:../Generated_Code/UTIL1.c **** ** ===================================================================
 145:../Generated_Code/UTIL1.c **** */
 146:../Generated_Code/UTIL1.c **** /*!
 147:../Generated_Code/UTIL1.c ****   \brief copy the string src into dst. It performs the same task as strncpy, except
 148:../Generated_Code/UTIL1.c ****      - always terminates the result string.
 149:../Generated_Code/UTIL1.c ****      - does not zero out the remaining part in dst.
 150:../Generated_Code/UTIL1.c ****      Note: dstSize is the size of dst INCLUDING zero byte.
 151:../Generated_Code/UTIL1.c ****      Precondition: src, dst != NULL
 152:../Generated_Code/UTIL1.c ****   \param[in,out] dst Start of string buffer, where to append the number string
 153:../Generated_Code/UTIL1.c ****   \param[in] dstSize The size of the buffer, including the zero byte
 154:../Generated_Code/UTIL1.c ****   \param[in] src The source string to copy
 155:../Generated_Code/UTIL1.c **** */
 156:../Generated_Code/UTIL1.c **** void UTIL1_strcpy(uint8_t *dst, size_t dstSize, const unsigned char *src)
 157:../Generated_Code/UTIL1.c **** {
  26              		.loc 1 157 0
  27              		.cfi_startproc
  28 0000 80B5     		push	{r7, lr}
  29              	.LCFI0:
  30              		.cfi_def_cfa_offset 8
  31              		.cfi_offset 7, -8
  32              		.cfi_offset 14, -4
  33 0002 84B0     		sub	sp, sp, #16
  34              	.LCFI1:
  35              		.cfi_def_cfa_offset 24
  36 0004 00AF     		add	r7, sp, #0
  37              	.LCFI2:
  38              		.cfi_def_cfa_register 7
  39 0006 F860     		str	r0, [r7, #12]
  40 0008 B960     		str	r1, [r7, #8]
  41 000a 7A60     		str	r2, [r7, #4]
 158:../Generated_Code/UTIL1.c ****   dstSize--; /* for zero byte */
  42              		.loc 1 158 0
  43 000c BB68     		ldr	r3, [r7, #8]
  44 000e 013B     		sub	r3, r3, #1
  45 0010 BB60     		str	r3, [r7, #8]
 159:../Generated_Code/UTIL1.c ****   while (dstSize > 0 && *src != '\0') {
  46              		.loc 1 159 0
  47 0012 0CE0     		b	.L2
  48              	.L4:
 160:../Generated_Code/UTIL1.c ****     *dst++ = *src++;
  49              		.loc 1 160 0
  50 0014 7B68     		ldr	r3, [r7, #4]
  51 0016 1A78     		ldrb	r2, [r3]
  52 0018 FB68     		ldr	r3, [r7, #12]
  53 001a 1A70     		strb	r2, [r3]
  54 001c FB68     		ldr	r3, [r7, #12]
  55 001e 0133     		add	r3, r3, #1
  56 0020 FB60     		str	r3, [r7, #12]
  57 0022 7B68     		ldr	r3, [r7, #4]
  58 0024 0133     		add	r3, r3, #1
  59 0026 7B60     		str	r3, [r7, #4]
 161:../Generated_Code/UTIL1.c ****     dstSize--;
  60              		.loc 1 161 0
  61 0028 BB68     		ldr	r3, [r7, #8]
  62 002a 013B     		sub	r3, r3, #1
  63 002c BB60     		str	r3, [r7, #8]
  64              	.L2:
 159:../Generated_Code/UTIL1.c ****   while (dstSize > 0 && *src != '\0') {
  65              		.loc 1 159 0
  66 002e BB68     		ldr	r3, [r7, #8]
  67 0030 002B     		cmp	r3, #0
  68 0032 03D0     		beq	.L3
 159:../Generated_Code/UTIL1.c ****   while (dstSize > 0 && *src != '\0') {
  69              		.loc 1 159 0 is_stmt 0
  70 0034 7B68     		ldr	r3, [r7, #4]
  71 0036 1B78     		ldrb	r3, [r3]
  72 0038 002B     		cmp	r3, #0
  73 003a EBD1     		bne	.L4
  74              	.L3:
 162:../Generated_Code/UTIL1.c ****   }
 163:../Generated_Code/UTIL1.c ****   *dst = '\0';
  75              		.loc 1 163 0 is_stmt 1
  76 003c FB68     		ldr	r3, [r7, #12]
  77 003e 0022     		mov	r2, #0
  78 0040 1A70     		strb	r2, [r3]
 164:../Generated_Code/UTIL1.c **** }
  79              		.loc 1 164 0
  80 0042 BD46     		mov	sp, r7
  81 0044 04B0     		add	sp, sp, #16
  82              		@ sp needed for prologue
  83 0046 80BD     		pop	{r7, pc}
  84              		.cfi_endproc
  85              	.LFE0:
  87              		.section	.text.UTIL1_strcat,"ax",%progbits
  88              		.align	2
  89              		.global	UTIL1_strcat
  90              		.code	16
  91              		.thumb_func
  93              	UTIL1_strcat:
  94              	.LFB1:
 165:../Generated_Code/UTIL1.c **** 
 166:../Generated_Code/UTIL1.c **** /*
 167:../Generated_Code/UTIL1.c **** ** ===================================================================
 168:../Generated_Code/UTIL1.c **** **     Method      :  UTIL1_strcat (component Utility)
 169:../Generated_Code/UTIL1.c **** **     Description :
 170:../Generated_Code/UTIL1.c **** **         Same as normal strcat, but safe as it does not write beyond
 171:../Generated_Code/UTIL1.c **** **         the buffer.
 172:../Generated_Code/UTIL1.c **** **     Parameters  :
 173:../Generated_Code/UTIL1.c **** **         NAME            - DESCRIPTION
 174:../Generated_Code/UTIL1.c **** **       * dst             - Pointer to destination string
 175:../Generated_Code/UTIL1.c **** **         dstSize         - Size of the destination buffer (in
 176:../Generated_Code/UTIL1.c **** **                           bytes).
 177:../Generated_Code/UTIL1.c **** **       * src             - Pointer to source string.
 178:../Generated_Code/UTIL1.c **** **     Returns     : Nothing
 179:../Generated_Code/UTIL1.c **** ** ===================================================================
 180:../Generated_Code/UTIL1.c **** */
 181:../Generated_Code/UTIL1.c **** /*!
 182:../Generated_Code/UTIL1.c ****   \brief Concat the string src into dst. Always terminates the result string.
 183:../Generated_Code/UTIL1.c ****      Note: count is the size of dst INCLUDING zero byte.
 184:../Generated_Code/UTIL1.c ****      Precondition: src, dst != NULL
 185:../Generated_Code/UTIL1.c ****   \param[in,out] dst Start of string buffer, where to append the number string
 186:../Generated_Code/UTIL1.c ****   \param[in] dstSize The size of the buffer, including the zero byte
 187:../Generated_Code/UTIL1.c ****   \param[in] src The source string to add
 188:../Generated_Code/UTIL1.c ****   */
 189:../Generated_Code/UTIL1.c **** void UTIL1_strcat(uint8_t *dst, size_t dstSize, const unsigned char *src)
 190:../Generated_Code/UTIL1.c **** {
  95              		.loc 1 190 0
  96              		.cfi_startproc
  97 0000 80B5     		push	{r7, lr}
  98              	.LCFI3:
  99              		.cfi_def_cfa_offset 8
 100              		.cfi_offset 7, -8
 101              		.cfi_offset 14, -4
 102 0002 84B0     		sub	sp, sp, #16
 103              	.LCFI4:
 104              		.cfi_def_cfa_offset 24
 105 0004 00AF     		add	r7, sp, #0
 106              	.LCFI5:
 107              		.cfi_def_cfa_register 7
 108 0006 F860     		str	r0, [r7, #12]
 109 0008 B960     		str	r1, [r7, #8]
 110 000a 7A60     		str	r2, [r7, #4]
 191:../Generated_Code/UTIL1.c ****   dstSize--; /* for zero byte */
 111              		.loc 1 191 0
 112 000c BB68     		ldr	r3, [r7, #8]
 113 000e 013B     		sub	r3, r3, #1
 114 0010 BB60     		str	r3, [r7, #8]
 192:../Generated_Code/UTIL1.c ****   /* point to the end of the source */
 193:../Generated_Code/UTIL1.c ****   while (dstSize > 0 && *dst != '\0') {
 115              		.loc 1 193 0
 116 0012 05E0     		b	.L6
 117              	.L8:
 194:../Generated_Code/UTIL1.c ****     dst++;
 118              		.loc 1 194 0
 119 0014 FB68     		ldr	r3, [r7, #12]
 120 0016 0133     		add	r3, r3, #1
 121 0018 FB60     		str	r3, [r7, #12]
 195:../Generated_Code/UTIL1.c ****     dstSize--;
 122              		.loc 1 195 0
 123 001a BB68     		ldr	r3, [r7, #8]
 124 001c 013B     		sub	r3, r3, #1
 125 001e BB60     		str	r3, [r7, #8]
 126              	.L6:
 193:../Generated_Code/UTIL1.c ****   while (dstSize > 0 && *dst != '\0') {
 127              		.loc 1 193 0
 128 0020 BB68     		ldr	r3, [r7, #8]
 129 0022 002B     		cmp	r3, #0
 130 0024 11D0     		beq	.L9
 193:../Generated_Code/UTIL1.c ****   while (dstSize > 0 && *dst != '\0') {
 131              		.loc 1 193 0 is_stmt 0
 132 0026 FB68     		ldr	r3, [r7, #12]
 133 0028 1B78     		ldrb	r3, [r3]
 134 002a 002B     		cmp	r3, #0
 135 002c F2D1     		bne	.L8
 196:../Generated_Code/UTIL1.c ****   }
 197:../Generated_Code/UTIL1.c ****   /* copy the src in the destination */
 198:../Generated_Code/UTIL1.c ****   while (dstSize > 0 && *src != '\0') {
 136              		.loc 1 198 0 is_stmt 1
 137 002e 0CE0     		b	.L9
 138              	.L11:
 199:../Generated_Code/UTIL1.c ****     *dst++ = *src++;
 139              		.loc 1 199 0
 140 0030 7B68     		ldr	r3, [r7, #4]
 141 0032 1A78     		ldrb	r2, [r3]
 142 0034 FB68     		ldr	r3, [r7, #12]
 143 0036 1A70     		strb	r2, [r3]
 144 0038 FB68     		ldr	r3, [r7, #12]
 145 003a 0133     		add	r3, r3, #1
 146 003c FB60     		str	r3, [r7, #12]
 147 003e 7B68     		ldr	r3, [r7, #4]
 148 0040 0133     		add	r3, r3, #1
 149 0042 7B60     		str	r3, [r7, #4]
 200:../Generated_Code/UTIL1.c ****     dstSize--;
 150              		.loc 1 200 0
 151 0044 BB68     		ldr	r3, [r7, #8]
 152 0046 013B     		sub	r3, r3, #1
 153 0048 BB60     		str	r3, [r7, #8]
 154              	.L9:
 198:../Generated_Code/UTIL1.c ****   while (dstSize > 0 && *src != '\0') {
 155              		.loc 1 198 0
 156 004a BB68     		ldr	r3, [r7, #8]
 157 004c 002B     		cmp	r3, #0
 158 004e 03D0     		beq	.L10
 198:../Generated_Code/UTIL1.c ****   while (dstSize > 0 && *src != '\0') {
 159              		.loc 1 198 0 is_stmt 0
 160 0050 7B68     		ldr	r3, [r7, #4]
 161 0052 1B78     		ldrb	r3, [r3]
 162 0054 002B     		cmp	r3, #0
 163 0056 EBD1     		bne	.L11
 164              	.L10:
 201:../Generated_Code/UTIL1.c ****   }
 202:../Generated_Code/UTIL1.c ****   /* terminate the string */
 203:../Generated_Code/UTIL1.c ****   *dst = '\0';
 165              		.loc 1 203 0 is_stmt 1
 166 0058 FB68     		ldr	r3, [r7, #12]
 167 005a 0022     		mov	r2, #0
 168 005c 1A70     		strb	r2, [r3]
 204:../Generated_Code/UTIL1.c **** }
 169              		.loc 1 204 0
 170 005e BD46     		mov	sp, r7
 171 0060 04B0     		add	sp, sp, #16
 172              		@ sp needed for prologue
 173 0062 80BD     		pop	{r7, pc}
 174              		.cfi_endproc
 175              	.LFE1:
 177              		.section	.text.UTIL1_chcat,"ax",%progbits
 178              		.align	2
 179              		.global	UTIL1_chcat
 180              		.code	16
 181              		.thumb_func
 183              	UTIL1_chcat:
 184              	.LFB2:
 205:../Generated_Code/UTIL1.c **** 
 206:../Generated_Code/UTIL1.c **** /*
 207:../Generated_Code/UTIL1.c **** ** ===================================================================
 208:../Generated_Code/UTIL1.c **** **     Method      :  UTIL1_chcat (component Utility)
 209:../Generated_Code/UTIL1.c **** **     Description :
 210:../Generated_Code/UTIL1.c **** **         Adds a single character to a zero byte terminated string
 211:../Generated_Code/UTIL1.c **** **         buffer. It cares about buffer overflow.
 212:../Generated_Code/UTIL1.c **** **     Parameters  :
 213:../Generated_Code/UTIL1.c **** **         NAME            - DESCRIPTION
 214:../Generated_Code/UTIL1.c **** **       * dst             - Pointer to destination string
 215:../Generated_Code/UTIL1.c **** **         dstSize         - Size of the destination buffer (in
 216:../Generated_Code/UTIL1.c **** **                           bytes).
 217:../Generated_Code/UTIL1.c **** **         ch              - character to append
 218:../Generated_Code/UTIL1.c **** **     Returns     : Nothing
 219:../Generated_Code/UTIL1.c **** ** ===================================================================
 220:../Generated_Code/UTIL1.c **** */
 221:../Generated_Code/UTIL1.c **** void UTIL1_chcat(uint8_t *dst, size_t dstSize, uint8_t ch)
 222:../Generated_Code/UTIL1.c **** {
 185              		.loc 1 222 0
 186              		.cfi_startproc
 187 0000 80B5     		push	{r7, lr}
 188              	.LCFI6:
 189              		.cfi_def_cfa_offset 8
 190              		.cfi_offset 7, -8
 191              		.cfi_offset 14, -4
 192 0002 84B0     		sub	sp, sp, #16
 193              	.LCFI7:
 194              		.cfi_def_cfa_offset 24
 195 0004 00AF     		add	r7, sp, #0
 196              	.LCFI8:
 197              		.cfi_def_cfa_register 7
 198 0006 F860     		str	r0, [r7, #12]
 199 0008 B960     		str	r1, [r7, #8]
 200 000a FB1D     		add	r3, r7, #7
 201 000c 1A70     		strb	r2, [r3]
 223:../Generated_Code/UTIL1.c ****   dstSize--; /* for zero byte */
 202              		.loc 1 223 0
 203 000e BB68     		ldr	r3, [r7, #8]
 204 0010 013B     		sub	r3, r3, #1
 205 0012 BB60     		str	r3, [r7, #8]
 224:../Generated_Code/UTIL1.c ****   /* point to the end of the source */
 225:../Generated_Code/UTIL1.c ****   while (dstSize > 0 && *dst != '\0') {
 206              		.loc 1 225 0
 207 0014 05E0     		b	.L13
 208              	.L15:
 226:../Generated_Code/UTIL1.c ****     dst++;
 209              		.loc 1 226 0
 210 0016 FB68     		ldr	r3, [r7, #12]
 211 0018 0133     		add	r3, r3, #1
 212 001a FB60     		str	r3, [r7, #12]
 227:../Generated_Code/UTIL1.c ****     dstSize--;
 213              		.loc 1 227 0
 214 001c BB68     		ldr	r3, [r7, #8]
 215 001e 013B     		sub	r3, r3, #1
 216 0020 BB60     		str	r3, [r7, #8]
 217              	.L13:
 225:../Generated_Code/UTIL1.c ****   while (dstSize > 0 && *dst != '\0') {
 218              		.loc 1 225 0
 219 0022 BB68     		ldr	r3, [r7, #8]
 220 0024 002B     		cmp	r3, #0
 221 0026 03D0     		beq	.L14
 225:../Generated_Code/UTIL1.c ****   while (dstSize > 0 && *dst != '\0') {
 222              		.loc 1 225 0 is_stmt 0
 223 0028 FB68     		ldr	r3, [r7, #12]
 224 002a 1B78     		ldrb	r3, [r3]
 225 002c 002B     		cmp	r3, #0
 226 002e F2D1     		bne	.L15
 227              	.L14:
 228:../Generated_Code/UTIL1.c ****   }
 229:../Generated_Code/UTIL1.c ****   /* copy the ch in the destination */
 230:../Generated_Code/UTIL1.c ****   if (dstSize > 0) {
 228              		.loc 1 230 0 is_stmt 1
 229 0030 BB68     		ldr	r3, [r7, #8]
 230 0032 002B     		cmp	r3, #0
 231 0034 06D0     		beq	.L16
 231:../Generated_Code/UTIL1.c ****     *dst++ = ch;
 232              		.loc 1 231 0
 233 0036 FB68     		ldr	r3, [r7, #12]
 234 0038 FA1D     		add	r2, r7, #7
 235 003a 1278     		ldrb	r2, [r2]
 236 003c 1A70     		strb	r2, [r3]
 237 003e FB68     		ldr	r3, [r7, #12]
 238 0040 0133     		add	r3, r3, #1
 239 0042 FB60     		str	r3, [r7, #12]
 240              	.L16:
 232:../Generated_Code/UTIL1.c ****   }
 233:../Generated_Code/UTIL1.c ****   /* terminate the string */
 234:../Generated_Code/UTIL1.c ****   *dst = '\0';
 241              		.loc 1 234 0
 242 0044 FB68     		ldr	r3, [r7, #12]
 243 0046 0022     		mov	r2, #0
 244 0048 1A70     		strb	r2, [r3]
 235:../Generated_Code/UTIL1.c **** }
 245              		.loc 1 235 0
 246 004a BD46     		mov	sp, r7
 247 004c 04B0     		add	sp, sp, #16
 248              		@ sp needed for prologue
 249 004e 80BD     		pop	{r7, pc}
 250              		.cfi_endproc
 251              	.LFE2:
 253              		.section	.text.UTIL1_Num8uToStr,"ax",%progbits
 254              		.align	2
 255              		.global	UTIL1_Num8uToStr
 256              		.code	16
 257              		.thumb_func
 259              	UTIL1_Num8uToStr:
 260              	.LFB3:
 236:../Generated_Code/UTIL1.c **** 
 237:../Generated_Code/UTIL1.c **** /*
 238:../Generated_Code/UTIL1.c **** ** ===================================================================
 239:../Generated_Code/UTIL1.c **** **     Method      :  UTIL1_Num8uToStr (component Utility)
 240:../Generated_Code/UTIL1.c **** **     Description :
 241:../Generated_Code/UTIL1.c **** **         Converts an unsigned 8bit value into a string.
 242:../Generated_Code/UTIL1.c **** **     Parameters  :
 243:../Generated_Code/UTIL1.c **** **         NAME            - DESCRIPTION
 244:../Generated_Code/UTIL1.c **** **       * dst             - Pointer to destination string
 245:../Generated_Code/UTIL1.c **** **         dstSize         - Size of the destination buffer (in
 246:../Generated_Code/UTIL1.c **** **                           bytes).
 247:../Generated_Code/UTIL1.c **** **         val             - Value to be converted.
 248:../Generated_Code/UTIL1.c **** **     Returns     : Nothing
 249:../Generated_Code/UTIL1.c **** ** ===================================================================
 250:../Generated_Code/UTIL1.c **** */
 251:../Generated_Code/UTIL1.c **** /*!
 252:../Generated_Code/UTIL1.c ****   \brief Converts an 8bit unsigned number into a string.
 253:../Generated_Code/UTIL1.c ****   \param[in,out] dst String buffer to store the number.
 254:../Generated_Code/UTIL1.c ****   \param[in] dstSize Size of the destination buffer in uint8_ts.
 255:../Generated_Code/UTIL1.c ****   \param[in] val 8bit unsigned number to convert.
 256:../Generated_Code/UTIL1.c ****  */
 257:../Generated_Code/UTIL1.c **** void UTIL1_Num8uToStr(uint8_t *dst, size_t dstSize, uint8_t val)
 258:../Generated_Code/UTIL1.c **** {
 261              		.loc 1 258 0
 262              		.cfi_startproc
 263 0000 80B5     		push	{r7, lr}
 264              	.LCFI9:
 265              		.cfi_def_cfa_offset 8
 266              		.cfi_offset 7, -8
 267              		.cfi_offset 14, -4
 268 0002 84B0     		sub	sp, sp, #16
 269              	.LCFI10:
 270              		.cfi_def_cfa_offset 24
 271 0004 00AF     		add	r7, sp, #0
 272              	.LCFI11:
 273              		.cfi_def_cfa_register 7
 274 0006 F860     		str	r0, [r7, #12]
 275 0008 B960     		str	r1, [r7, #8]
 276 000a FB1D     		add	r3, r7, #7
 277 000c 1A70     		strb	r2, [r3]
 259:../Generated_Code/UTIL1.c ****   UTIL1_Num16uToStr(dst, dstSize, (uint16_t)val);
 278              		.loc 1 259 0
 279 000e FB1D     		add	r3, r7, #7
 280 0010 1B78     		ldrb	r3, [r3]
 281 0012 9BB2     		uxth	r3, r3
 282 0014 F968     		ldr	r1, [r7, #12]
 283 0016 BA68     		ldr	r2, [r7, #8]
 284 0018 081C     		mov	r0, r1
 285 001a 111C     		mov	r1, r2
 286 001c 1A1C     		mov	r2, r3
 287 001e FFF7FEFF 		bl	UTIL1_Num16uToStr
 260:../Generated_Code/UTIL1.c **** }
 288              		.loc 1 260 0
 289 0022 BD46     		mov	sp, r7
 290 0024 04B0     		add	sp, sp, #16
 291              		@ sp needed for prologue
 292 0026 80BD     		pop	{r7, pc}
 293              		.cfi_endproc
 294              	.LFE3:
 296              		.section	.text.UTIL1_Num8sToStr,"ax",%progbits
 297              		.align	2
 298              		.global	UTIL1_Num8sToStr
 299              		.code	16
 300              		.thumb_func
 302              	UTIL1_Num8sToStr:
 303              	.LFB4:
 261:../Generated_Code/UTIL1.c **** 
 262:../Generated_Code/UTIL1.c **** /*
 263:../Generated_Code/UTIL1.c **** ** ===================================================================
 264:../Generated_Code/UTIL1.c **** **     Method      :  UTIL1_Num8sToStr (component Utility)
 265:../Generated_Code/UTIL1.c **** **     Description :
 266:../Generated_Code/UTIL1.c **** **         Converts a signed 8bit value into a string.
 267:../Generated_Code/UTIL1.c **** **     Parameters  :
 268:../Generated_Code/UTIL1.c **** **         NAME            - DESCRIPTION
 269:../Generated_Code/UTIL1.c **** **       * dst             - Pointer to destination string
 270:../Generated_Code/UTIL1.c **** **         dstSize         - Size of the destination buffer (in
 271:../Generated_Code/UTIL1.c **** **                           bytes).
 272:../Generated_Code/UTIL1.c **** **         val             - Value to be converted.
 273:../Generated_Code/UTIL1.c **** **     Returns     : Nothing
 274:../Generated_Code/UTIL1.c **** ** ===================================================================
 275:../Generated_Code/UTIL1.c **** */
 276:../Generated_Code/UTIL1.c **** /*!
 277:../Generated_Code/UTIL1.c ****   \brief Converts an 8bit signed number into a string.
 278:../Generated_Code/UTIL1.c ****   \param[in,out] dst String buffer to store the number.
 279:../Generated_Code/UTIL1.c ****   \param[in] dstSize Size of the destination buffer in uint8_ts.
 280:../Generated_Code/UTIL1.c ****   \param[in] val 8bit signed number to convert.
 281:../Generated_Code/UTIL1.c ****  */
 282:../Generated_Code/UTIL1.c **** void UTIL1_Num8sToStr(uint8_t *dst, size_t dstSize, signed char val)
 283:../Generated_Code/UTIL1.c **** {
 304              		.loc 1 283 0
 305              		.cfi_startproc
 306 0000 80B5     		push	{r7, lr}
 307              	.LCFI12:
 308              		.cfi_def_cfa_offset 8
 309              		.cfi_offset 7, -8
 310              		.cfi_offset 14, -4
 311 0002 84B0     		sub	sp, sp, #16
 312              	.LCFI13:
 313              		.cfi_def_cfa_offset 24
 314 0004 00AF     		add	r7, sp, #0
 315              	.LCFI14:
 316              		.cfi_def_cfa_register 7
 317 0006 F860     		str	r0, [r7, #12]
 318 0008 B960     		str	r1, [r7, #8]
 319 000a FB1D     		add	r3, r7, #7
 320 000c 1A70     		strb	r2, [r3]
 284:../Generated_Code/UTIL1.c ****   UTIL1_Num16sToStr(dst, dstSize, (int16_t)val);
 321              		.loc 1 284 0
 322 000e FB1D     		add	r3, r7, #7
 323 0010 1B78     		ldrb	r3, [r3]
 324 0012 5BB2     		sxtb	r3, r3
 325 0014 9BB2     		uxth	r3, r3
 326 0016 F968     		ldr	r1, [r7, #12]
 327 0018 BA68     		ldr	r2, [r7, #8]
 328 001a 1BB2     		sxth	r3, r3
 329 001c 081C     		mov	r0, r1
 330 001e 111C     		mov	r1, r2
 331 0020 1A1C     		mov	r2, r3
 332 0022 FFF7FEFF 		bl	UTIL1_Num16sToStr
 285:../Generated_Code/UTIL1.c **** }
 333              		.loc 1 285 0
 334 0026 BD46     		mov	sp, r7
 335 0028 04B0     		add	sp, sp, #16
 336              		@ sp needed for prologue
 337 002a 80BD     		pop	{r7, pc}
 338              		.cfi_endproc
 339              	.LFE4:
 341              		.global	__aeabi_uidivmod
 342              		.global	__aeabi_uidiv
 343              		.section	.text.UTIL1_Num16uToStr,"ax",%progbits
 344              		.align	2
 345              		.global	UTIL1_Num16uToStr
 346              		.code	16
 347              		.thumb_func
 349              	UTIL1_Num16uToStr:
 350              	.LFB5:
 286:../Generated_Code/UTIL1.c **** 
 287:../Generated_Code/UTIL1.c **** /*
 288:../Generated_Code/UTIL1.c **** ** ===================================================================
 289:../Generated_Code/UTIL1.c **** **     Method      :  UTIL1_Num16uToStr (component Utility)
 290:../Generated_Code/UTIL1.c **** **     Description :
 291:../Generated_Code/UTIL1.c **** **         Converts a signed 16bit value into a string.
 292:../Generated_Code/UTIL1.c **** **     Parameters  :
 293:../Generated_Code/UTIL1.c **** **         NAME            - DESCRIPTION
 294:../Generated_Code/UTIL1.c **** **       * dst             - Pointer to destination string
 295:../Generated_Code/UTIL1.c **** **         dstSize         - Size of the destination buffer (in
 296:../Generated_Code/UTIL1.c **** **                           bytes).
 297:../Generated_Code/UTIL1.c **** **         val             - Value to be converted.
 298:../Generated_Code/UTIL1.c **** **     Returns     : Nothing
 299:../Generated_Code/UTIL1.c **** ** ===================================================================
 300:../Generated_Code/UTIL1.c **** */
 301:../Generated_Code/UTIL1.c **** /*!
 302:../Generated_Code/UTIL1.c ****   \brief Converts a 16bit unsigned number into a string.
 303:../Generated_Code/UTIL1.c ****   \param[in,out] dst String buffer to store the number.
 304:../Generated_Code/UTIL1.c ****   \param[in] dstSize Size of the destination buffer in uint8_ts.
 305:../Generated_Code/UTIL1.c ****   \param[in] val 16bit unsigned number to convert.
 306:../Generated_Code/UTIL1.c ****  */
 307:../Generated_Code/UTIL1.c **** void UTIL1_Num16uToStr(uint8_t *dst, size_t dstSize, uint16_t val)
 308:../Generated_Code/UTIL1.c **** {
 351              		.loc 1 308 0
 352              		.cfi_startproc
 353 0000 90B5     		push	{r4, r7, lr}
 354              	.LCFI15:
 355              		.cfi_def_cfa_offset 12
 356              		.cfi_offset 4, -12
 357              		.cfi_offset 7, -8
 358              		.cfi_offset 14, -4
 359 0002 89B0     		sub	sp, sp, #36
 360              	.LCFI16:
 361              		.cfi_def_cfa_offset 48
 362 0004 00AF     		add	r7, sp, #0
 363              	.LCFI17:
 364              		.cfi_def_cfa_register 7
 365 0006 F860     		str	r0, [r7, #12]
 366 0008 B960     		str	r1, [r7, #8]
 367 000a BB1D     		add	r3, r7, #6
 368 000c 1A80     		strh	r2, [r3]
 309:../Generated_Code/UTIL1.c ****   unsigned char *ptr = ((unsigned char *)dst);
 369              		.loc 1 309 0
 370 000e FB68     		ldr	r3, [r7, #12]
 371 0010 BB61     		str	r3, [r7, #24]
 310:../Generated_Code/UTIL1.c ****   unsigned char i=0, j;
 372              		.loc 1 310 0
 373 0012 3B1C     		mov	r3, r7
 374 0014 1F33     		add	r3, r3, #31
 375 0016 0022     		mov	r2, #0
 376 0018 1A70     		strb	r2, [r3]
 311:../Generated_Code/UTIL1.c ****   unsigned char tmp;
 312:../Generated_Code/UTIL1.c **** 
 313:../Generated_Code/UTIL1.c ****   dstSize--; /* for zero byte */
 377              		.loc 1 313 0
 378 001a BB68     		ldr	r3, [r7, #8]
 379 001c 013B     		sub	r3, r3, #1
 380 001e BB60     		str	r3, [r7, #8]
 314:../Generated_Code/UTIL1.c ****   if (val == 0 && dstSize > 0){
 381              		.loc 1 314 0
 382 0020 BB1D     		add	r3, r7, #6
 383 0022 1B88     		ldrh	r3, [r3]
 384 0024 002B     		cmp	r3, #0
 385 0026 38D1     		bne	.L21
 386              		.loc 1 314 0 is_stmt 0
 387 0028 BB68     		ldr	r3, [r7, #8]
 388 002a 002B     		cmp	r3, #0
 389 002c 35D0     		beq	.L21
 315:../Generated_Code/UTIL1.c ****     ptr[i++] = '0';
 390              		.loc 1 315 0 is_stmt 1
 391 002e 3B1C     		mov	r3, r7
 392 0030 1F33     		add	r3, r3, #31
 393 0032 1B78     		ldrb	r3, [r3]
 394 0034 BA69     		ldr	r2, [r7, #24]
 395 0036 D318     		add	r3, r2, r3
 396 0038 3022     		mov	r2, #48
 397 003a 1A70     		strb	r2, [r3]
 398 003c 3B1C     		mov	r3, r7
 399 003e 1F33     		add	r3, r3, #31
 400 0040 3A1C     		mov	r2, r7
 401 0042 1F32     		add	r2, r2, #31
 402 0044 1278     		ldrb	r2, [r2]
 403 0046 0132     		add	r2, r2, #1
 404 0048 1A70     		strb	r2, [r3]
 316:../Generated_Code/UTIL1.c ****     dstSize--;
 405              		.loc 1 316 0
 406 004a BB68     		ldr	r3, [r7, #8]
 407 004c 013B     		sub	r3, r3, #1
 408 004e BB60     		str	r3, [r7, #8]
 317:../Generated_Code/UTIL1.c ****   }
 318:../Generated_Code/UTIL1.c ****   while (val > 0 && dstSize > 0) {
 409              		.loc 1 318 0
 410 0050 23E0     		b	.L21
 411              	.L23:
 319:../Generated_Code/UTIL1.c ****     ptr[i++] = (unsigned char)((val % 10) + '0');
 412              		.loc 1 319 0
 413 0052 3B1C     		mov	r3, r7
 414 0054 1F33     		add	r3, r3, #31
 415 0056 1B78     		ldrb	r3, [r3]
 416 0058 BA69     		ldr	r2, [r7, #24]
 417 005a D418     		add	r4, r2, r3
 418 005c BB1D     		add	r3, r7, #6
 419 005e 1B88     		ldrh	r3, [r3]
 420 0060 181C     		mov	r0, r3
 421 0062 0A21     		mov	r1, #10
 422 0064 FFF7FEFF 		bl	__aeabi_uidivmod
 423 0068 0B1C     		mov	r3, r1
 424 006a 9BB2     		uxth	r3, r3
 425 006c DBB2     		uxtb	r3, r3
 426 006e 3033     		add	r3, r3, #48
 427 0070 DBB2     		uxtb	r3, r3
 428 0072 2370     		strb	r3, [r4]
 429 0074 3B1C     		mov	r3, r7
 430 0076 1F33     		add	r3, r3, #31
 431 0078 3A1C     		mov	r2, r7
 432 007a 1F32     		add	r2, r2, #31
 433 007c 1278     		ldrb	r2, [r2]
 434 007e 0132     		add	r2, r2, #1
 435 0080 1A70     		strb	r2, [r3]
 320:../Generated_Code/UTIL1.c ****     dstSize--;
 436              		.loc 1 320 0
 437 0082 BB68     		ldr	r3, [r7, #8]
 438 0084 013B     		sub	r3, r3, #1
 439 0086 BB60     		str	r3, [r7, #8]
 321:../Generated_Code/UTIL1.c ****     val /= 10;
 440              		.loc 1 321 0
 441 0088 BC1D     		add	r4, r7, #6
 442 008a BB1D     		add	r3, r7, #6
 443 008c 1B88     		ldrh	r3, [r3]
 444 008e 181C     		mov	r0, r3
 445 0090 0A21     		mov	r1, #10
 446 0092 FFF7FEFF 		bl	__aeabi_uidiv
 447 0096 031C     		mov	r3, r0
 448 0098 2380     		strh	r3, [r4]
 449              	.L21:
 318:../Generated_Code/UTIL1.c ****   while (val > 0 && dstSize > 0) {
 450              		.loc 1 318 0
 451 009a BB1D     		add	r3, r7, #6
 452 009c 1B88     		ldrh	r3, [r3]
 453 009e 002B     		cmp	r3, #0
 454 00a0 02D0     		beq	.L22
 318:../Generated_Code/UTIL1.c ****   while (val > 0 && dstSize > 0) {
 455              		.loc 1 318 0 is_stmt 0
 456 00a2 BB68     		ldr	r3, [r7, #8]
 457 00a4 002B     		cmp	r3, #0
 458 00a6 D4D1     		bne	.L23
 459              	.L22:
 322:../Generated_Code/UTIL1.c ****   }
 323:../Generated_Code/UTIL1.c ****   for(j=0; j<(i/2); j++) { /* swap buffer */
 460              		.loc 1 323 0 is_stmt 1
 461 00a8 3B1C     		mov	r3, r7
 462 00aa 1E33     		add	r3, r3, #30
 463 00ac 0022     		mov	r2, #0
 464 00ae 1A70     		strb	r2, [r3]
 465 00b0 2EE0     		b	.L24
 466              	.L25:
 324:../Generated_Code/UTIL1.c ****     tmp = ptr[j];
 467              		.loc 1 324 0
 468 00b2 3B1C     		mov	r3, r7
 469 00b4 1E33     		add	r3, r3, #30
 470 00b6 1B78     		ldrb	r3, [r3]
 471 00b8 BA69     		ldr	r2, [r7, #24]
 472 00ba D218     		add	r2, r2, r3
 473 00bc 3B1C     		mov	r3, r7
 474 00be 1733     		add	r3, r3, #23
 475 00c0 1278     		ldrb	r2, [r2]
 476 00c2 1A70     		strb	r2, [r3]
 325:../Generated_Code/UTIL1.c ****     ptr[j] = ptr[(i-j)-1];
 477              		.loc 1 325 0
 478 00c4 3B1C     		mov	r3, r7
 479 00c6 1E33     		add	r3, r3, #30
 480 00c8 1B78     		ldrb	r3, [r3]
 481 00ca BA69     		ldr	r2, [r7, #24]
 482 00cc D318     		add	r3, r2, r3
 483 00ce 3A1C     		mov	r2, r7
 484 00d0 1F32     		add	r2, r2, #31
 485 00d2 1178     		ldrb	r1, [r2]
 486 00d4 3A1C     		mov	r2, r7
 487 00d6 1E32     		add	r2, r2, #30
 488 00d8 1278     		ldrb	r2, [r2]
 489 00da 8A1A     		sub	r2, r1, r2
 490 00dc 013A     		sub	r2, r2, #1
 491 00de B969     		ldr	r1, [r7, #24]
 492 00e0 8A18     		add	r2, r1, r2
 493 00e2 1278     		ldrb	r2, [r2]
 494 00e4 1A70     		strb	r2, [r3]
 326:../Generated_Code/UTIL1.c ****     ptr[(i-j)-1] = tmp;
 495              		.loc 1 326 0
 496 00e6 3B1C     		mov	r3, r7
 497 00e8 1F33     		add	r3, r3, #31
 498 00ea 1A78     		ldrb	r2, [r3]
 499 00ec 3B1C     		mov	r3, r7
 500 00ee 1E33     		add	r3, r3, #30
 501 00f0 1B78     		ldrb	r3, [r3]
 502 00f2 D31A     		sub	r3, r2, r3
 503 00f4 013B     		sub	r3, r3, #1
 504 00f6 BA69     		ldr	r2, [r7, #24]
 505 00f8 D318     		add	r3, r2, r3
 506 00fa 3A1C     		mov	r2, r7
 507 00fc 1732     		add	r2, r2, #23
 508 00fe 1278     		ldrb	r2, [r2]
 509 0100 1A70     		strb	r2, [r3]
 323:../Generated_Code/UTIL1.c ****   for(j=0; j<(i/2); j++) { /* swap buffer */
 510              		.loc 1 323 0
 511 0102 3B1C     		mov	r3, r7
 512 0104 1E33     		add	r3, r3, #30
 513 0106 3A1C     		mov	r2, r7
 514 0108 1E32     		add	r2, r2, #30
 515 010a 1278     		ldrb	r2, [r2]
 516 010c 0132     		add	r2, r2, #1
 517 010e 1A70     		strb	r2, [r3]
 518              	.L24:
 323:../Generated_Code/UTIL1.c ****   for(j=0; j<(i/2); j++) { /* swap buffer */
 519              		.loc 1 323 0 is_stmt 0
 520 0110 3B1C     		mov	r3, r7
 521 0112 1F33     		add	r3, r3, #31
 522 0114 1B78     		ldrb	r3, [r3]
 523 0116 5B08     		lsr	r3, r3, #1
 524 0118 DBB2     		uxtb	r3, r3
 525 011a 3A1C     		mov	r2, r7
 526 011c 1E32     		add	r2, r2, #30
 527 011e 1278     		ldrb	r2, [r2]
 528 0120 9A42     		cmp	r2, r3
 529 0122 C6D3     		bcc	.L25
 327:../Generated_Code/UTIL1.c ****   }
 328:../Generated_Code/UTIL1.c ****   ptr[i] = '\0';
 530              		.loc 1 328 0 is_stmt 1
 531 0124 3B1C     		mov	r3, r7
 532 0126 1F33     		add	r3, r3, #31
 533 0128 1B78     		ldrb	r3, [r3]
 534 012a BA69     		ldr	r2, [r7, #24]
 535 012c D318     		add	r3, r2, r3
 536 012e 0022     		mov	r2, #0
 537 0130 1A70     		strb	r2, [r3]
 329:../Generated_Code/UTIL1.c **** }
 538              		.loc 1 329 0
 539 0132 BD46     		mov	sp, r7
 540 0134 09B0     		add	sp, sp, #36
 541              		@ sp needed for prologue
 542 0136 90BD     		pop	{r4, r7, pc}
 543              		.cfi_endproc
 544              	.LFE5:
 546              		.section	.rodata
 547              		.align	2
 548              	.LC0:
 549 0000 2D333237 		.ascii	"-32768\000"
 549      363800
 550              		.global	__aeabi_idivmod
 551              		.global	__aeabi_idiv
 552              		.section	.text.UTIL1_Num16sToStr,"ax",%progbits
 553              		.align	2
 554              		.global	UTIL1_Num16sToStr
 555              		.code	16
 556              		.thumb_func
 558              	UTIL1_Num16sToStr:
 559              	.LFB6:
 330:../Generated_Code/UTIL1.c **** 
 331:../Generated_Code/UTIL1.c **** /*
 332:../Generated_Code/UTIL1.c **** ** ===================================================================
 333:../Generated_Code/UTIL1.c **** **     Method      :  UTIL1_Num16sToStr (component Utility)
 334:../Generated_Code/UTIL1.c **** **     Description :
 335:../Generated_Code/UTIL1.c **** **         Converts a signed 16bit value into a string.
 336:../Generated_Code/UTIL1.c **** **     Parameters  :
 337:../Generated_Code/UTIL1.c **** **         NAME            - DESCRIPTION
 338:../Generated_Code/UTIL1.c **** **       * dst             - Pointer to destination string
 339:../Generated_Code/UTIL1.c **** **         dstSize         - Size of the destination buffer (in
 340:../Generated_Code/UTIL1.c **** **                           bytes).
 341:../Generated_Code/UTIL1.c **** **         val             - Value to be converted.
 342:../Generated_Code/UTIL1.c **** **     Returns     : Nothing
 343:../Generated_Code/UTIL1.c **** ** ===================================================================
 344:../Generated_Code/UTIL1.c **** */
 345:../Generated_Code/UTIL1.c **** /*!
 346:../Generated_Code/UTIL1.c ****   \brief Converts a 16bit signed number into a string.
 347:../Generated_Code/UTIL1.c ****   \param[in,out] dst String buffer to store the number.
 348:../Generated_Code/UTIL1.c ****   \param[in] dstSize Size of the destination buffer in uint8_ts.
 349:../Generated_Code/UTIL1.c ****   \param[in] val 16bit signed number to convert.
 350:../Generated_Code/UTIL1.c ****  */
 351:../Generated_Code/UTIL1.c **** void UTIL1_Num16sToStr(uint8_t *dst, size_t dstSize, int16_t val)
 352:../Generated_Code/UTIL1.c **** {
 560              		.loc 1 352 0
 561              		.cfi_startproc
 562 0000 90B5     		push	{r4, r7, lr}
 563              	.LCFI18:
 564              		.cfi_def_cfa_offset 12
 565              		.cfi_offset 4, -12
 566              		.cfi_offset 7, -8
 567              		.cfi_offset 14, -4
 568 0002 89B0     		sub	sp, sp, #36
 569              	.LCFI19:
 570              		.cfi_def_cfa_offset 48
 571 0004 00AF     		add	r7, sp, #0
 572              	.LCFI20:
 573              		.cfi_def_cfa_register 7
 574 0006 F860     		str	r0, [r7, #12]
 575 0008 B960     		str	r1, [r7, #8]
 576 000a BB1D     		add	r3, r7, #6
 577 000c 1A80     		strh	r2, [r3]
 353:../Generated_Code/UTIL1.c ****   unsigned char *ptr =  ((unsigned char *)dst);
 578              		.loc 1 353 0
 579 000e FB68     		ldr	r3, [r7, #12]
 580 0010 BB61     		str	r3, [r7, #24]
 354:../Generated_Code/UTIL1.c ****   unsigned char i=0, j;
 581              		.loc 1 354 0
 582 0012 3B1C     		mov	r3, r7
 583 0014 1F33     		add	r3, r3, #31
 584 0016 0022     		mov	r2, #0
 585 0018 1A70     		strb	r2, [r3]
 355:../Generated_Code/UTIL1.c ****   unsigned char tmp;
 356:../Generated_Code/UTIL1.c ****   unsigned char sign = (unsigned char)(val < 0);
 586              		.loc 1 356 0
 587 001a BB1D     		add	r3, r7, #6
 588 001c 1B88     		ldrh	r3, [r3]
 589 001e DB0B     		lsr	r3, r3, #15
 590 0020 DAB2     		uxtb	r2, r3
 591 0022 3B1C     		mov	r3, r7
 592 0024 1733     		add	r3, r3, #23
 593 0026 1A70     		strb	r2, [r3]
 357:../Generated_Code/UTIL1.c **** 
 358:../Generated_Code/UTIL1.c ****   if (val==(int16_t)(0x8000)) { /* special case 0x8000/-32768: prevent overflow below. */
 594              		.loc 1 358 0
 595 0028 BB1D     		add	r3, r7, #6
 596 002a 0021     		mov	r1, #0
 597 002c 5A5E     		ldrsh	r2, [r3, r1]
 598 002e 604B     		ldr	r3, .L37
 599 0030 9A42     		cmp	r2, r3
 600 0032 08D1     		bne	.L27
 359:../Generated_Code/UTIL1.c ****     UTIL1_strcpy(dst, dstSize, (unsigned char*)"-32768");
 601              		.loc 1 359 0
 602 0034 F968     		ldr	r1, [r7, #12]
 603 0036 BA68     		ldr	r2, [r7, #8]
 604 0038 5E4B     		ldr	r3, .L37+4
 605 003a 081C     		mov	r0, r1
 606 003c 111C     		mov	r1, r2
 607 003e 1A1C     		mov	r2, r3
 608 0040 FFF7FEFF 		bl	UTIL1_strcpy
 360:../Generated_Code/UTIL1.c ****     return;
 609              		.loc 1 360 0
 610 0044 B0E0     		b	.L26
 611              	.L27:
 361:../Generated_Code/UTIL1.c ****   }
 362:../Generated_Code/UTIL1.c ****   dstSize--; /* for zero byte */
 612              		.loc 1 362 0
 613 0046 BB68     		ldr	r3, [r7, #8]
 614 0048 013B     		sub	r3, r3, #1
 615 004a BB60     		str	r3, [r7, #8]
 363:../Generated_Code/UTIL1.c ****   if (sign) {
 616              		.loc 1 363 0
 617 004c 3B1C     		mov	r3, r7
 618 004e 1733     		add	r3, r3, #23
 619 0050 1B78     		ldrb	r3, [r3]
 620 0052 002B     		cmp	r3, #0
 621 0054 05D0     		beq	.L29
 364:../Generated_Code/UTIL1.c ****     val = (int16_t)(-val);
 622              		.loc 1 364 0
 623 0056 BB1D     		add	r3, r7, #6
 624 0058 1B88     		ldrh	r3, [r3]
 625 005a 5B42     		neg	r3, r3
 626 005c 9AB2     		uxth	r2, r3
 627 005e BB1D     		add	r3, r7, #6
 628 0060 1A80     		strh	r2, [r3]
 629              	.L29:
 365:../Generated_Code/UTIL1.c ****   }
 366:../Generated_Code/UTIL1.c ****   if (val == 0 && dstSize > 0){
 630              		.loc 1 366 0
 631 0062 BB1D     		add	r3, r7, #6
 632 0064 0022     		mov	r2, #0
 633 0066 9B5E     		ldrsh	r3, [r3, r2]
 634 0068 002B     		cmp	r3, #0
 635 006a 3AD1     		bne	.L31
 636              		.loc 1 366 0 is_stmt 0
 637 006c BB68     		ldr	r3, [r7, #8]
 638 006e 002B     		cmp	r3, #0
 639 0070 37D0     		beq	.L31
 367:../Generated_Code/UTIL1.c ****     ptr[i++] = '0';
 640              		.loc 1 367 0 is_stmt 1
 641 0072 3B1C     		mov	r3, r7
 642 0074 1F33     		add	r3, r3, #31
 643 0076 1B78     		ldrb	r3, [r3]
 644 0078 BA69     		ldr	r2, [r7, #24]
 645 007a D318     		add	r3, r2, r3
 646 007c 3022     		mov	r2, #48
 647 007e 1A70     		strb	r2, [r3]
 648 0080 3B1C     		mov	r3, r7
 649 0082 1F33     		add	r3, r3, #31
 650 0084 3A1C     		mov	r2, r7
 651 0086 1F32     		add	r2, r2, #31
 652 0088 1278     		ldrb	r2, [r2]
 653 008a 0132     		add	r2, r2, #1
 654 008c 1A70     		strb	r2, [r3]
 368:../Generated_Code/UTIL1.c ****     dstSize--;
 655              		.loc 1 368 0
 656 008e BB68     		ldr	r3, [r7, #8]
 657 0090 013B     		sub	r3, r3, #1
 658 0092 BB60     		str	r3, [r7, #8]
 369:../Generated_Code/UTIL1.c ****   }
 370:../Generated_Code/UTIL1.c ****   while (val > 0 && dstSize > 0) {
 659              		.loc 1 370 0
 660 0094 25E0     		b	.L31
 661              	.L33:
 371:../Generated_Code/UTIL1.c ****     ptr[i++] = (unsigned char)((val % 10) + '0');
 662              		.loc 1 371 0
 663 0096 3B1C     		mov	r3, r7
 664 0098 1F33     		add	r3, r3, #31
 665 009a 1B78     		ldrb	r3, [r3]
 666 009c BA69     		ldr	r2, [r7, #24]
 667 009e D418     		add	r4, r2, r3
 668 00a0 BB1D     		add	r3, r7, #6
 669 00a2 0021     		mov	r1, #0
 670 00a4 5B5E     		ldrsh	r3, [r3, r1]
 671 00a6 181C     		mov	r0, r3
 672 00a8 0A21     		mov	r1, #10
 673 00aa FFF7FEFF 		bl	__aeabi_idivmod
 674 00ae 0B1C     		mov	r3, r1
 675 00b0 9BB2     		uxth	r3, r3
 676 00b2 DBB2     		uxtb	r3, r3
 677 00b4 3033     		add	r3, r3, #48
 678 00b6 DBB2     		uxtb	r3, r3
 679 00b8 2370     		strb	r3, [r4]
 680 00ba 3B1C     		mov	r3, r7
 681 00bc 1F33     		add	r3, r3, #31
 682 00be 3A1C     		mov	r2, r7
 683 00c0 1F32     		add	r2, r2, #31
 684 00c2 1278     		ldrb	r2, [r2]
 685 00c4 0132     		add	r2, r2, #1
 686 00c6 1A70     		strb	r2, [r3]
 372:../Generated_Code/UTIL1.c ****     dstSize--;
 687              		.loc 1 372 0
 688 00c8 BB68     		ldr	r3, [r7, #8]
 689 00ca 013B     		sub	r3, r3, #1
 690 00cc BB60     		str	r3, [r7, #8]
 373:../Generated_Code/UTIL1.c ****     val /= 10;
 691              		.loc 1 373 0
 692 00ce BC1D     		add	r4, r7, #6
 693 00d0 BB1D     		add	r3, r7, #6
 694 00d2 0022     		mov	r2, #0
 695 00d4 9B5E     		ldrsh	r3, [r3, r2]
 696 00d6 181C     		mov	r0, r3
 697 00d8 0A21     		mov	r1, #10
 698 00da FFF7FEFF 		bl	__aeabi_idiv
 699 00de 031C     		mov	r3, r0
 700 00e0 2380     		strh	r3, [r4]
 701              	.L31:
 370:../Generated_Code/UTIL1.c ****   while (val > 0 && dstSize > 0) {
 702              		.loc 1 370 0
 703 00e2 BB1D     		add	r3, r7, #6
 704 00e4 0021     		mov	r1, #0
 705 00e6 5B5E     		ldrsh	r3, [r3, r1]
 706 00e8 002B     		cmp	r3, #0
 707 00ea 02DD     		ble	.L32
 370:../Generated_Code/UTIL1.c ****   while (val > 0 && dstSize > 0) {
 708              		.loc 1 370 0 is_stmt 0
 709 00ec BB68     		ldr	r3, [r7, #8]
 710 00ee 002B     		cmp	r3, #0
 711 00f0 D1D1     		bne	.L33
 712              	.L32:
 374:../Generated_Code/UTIL1.c ****   }
 375:../Generated_Code/UTIL1.c ****   if (sign && dstSize > 0){
 713              		.loc 1 375 0 is_stmt 1
 714 00f2 3B1C     		mov	r3, r7
 715 00f4 1733     		add	r3, r3, #23
 716 00f6 1B78     		ldrb	r3, [r3]
 717 00f8 002B     		cmp	r3, #0
 718 00fa 10D0     		beq	.L34
 719              		.loc 1 375 0 is_stmt 0
 720 00fc BB68     		ldr	r3, [r7, #8]
 721 00fe 002B     		cmp	r3, #0
 722 0100 0DD0     		beq	.L34
 376:../Generated_Code/UTIL1.c ****     ptr[i++] = '-';
 723              		.loc 1 376 0 is_stmt 1
 724 0102 3B1C     		mov	r3, r7
 725 0104 1F33     		add	r3, r3, #31
 726 0106 1B78     		ldrb	r3, [r3]
 727 0108 BA69     		ldr	r2, [r7, #24]
 728 010a D318     		add	r3, r2, r3
 729 010c 2D22     		mov	r2, #45
 730 010e 1A70     		strb	r2, [r3]
 731 0110 3B1C     		mov	r3, r7
 732 0112 1F33     		add	r3, r3, #31
 733 0114 3A1C     		mov	r2, r7
 734 0116 1F32     		add	r2, r2, #31
 735 0118 1278     		ldrb	r2, [r2]
 736 011a 0132     		add	r2, r2, #1
 737 011c 1A70     		strb	r2, [r3]
 738              	.L34:
 377:../Generated_Code/UTIL1.c ****   }
 378:../Generated_Code/UTIL1.c ****   for(j=0; j<(i/2); j++) { /* swap buffer */
 739              		.loc 1 378 0
 740 011e 3B1C     		mov	r3, r7
 741 0120 1E33     		add	r3, r3, #30
 742 0122 0022     		mov	r2, #0
 743 0124 1A70     		strb	r2, [r3]
 744 0126 2EE0     		b	.L35
 745              	.L36:
 379:../Generated_Code/UTIL1.c ****     tmp = ptr[j];
 746              		.loc 1 379 0
 747 0128 3B1C     		mov	r3, r7
 748 012a 1E33     		add	r3, r3, #30
 749 012c 1B78     		ldrb	r3, [r3]
 750 012e BA69     		ldr	r2, [r7, #24]
 751 0130 D218     		add	r2, r2, r3
 752 0132 3B1C     		mov	r3, r7
 753 0134 1633     		add	r3, r3, #22
 754 0136 1278     		ldrb	r2, [r2]
 755 0138 1A70     		strb	r2, [r3]
 380:../Generated_Code/UTIL1.c ****     ptr[j] = ptr[(i-j)-1];
 756              		.loc 1 380 0
 757 013a 3B1C     		mov	r3, r7
 758 013c 1E33     		add	r3, r3, #30
 759 013e 1B78     		ldrb	r3, [r3]
 760 0140 BA69     		ldr	r2, [r7, #24]
 761 0142 D318     		add	r3, r2, r3
 762 0144 3A1C     		mov	r2, r7
 763 0146 1F32     		add	r2, r2, #31
 764 0148 1178     		ldrb	r1, [r2]
 765 014a 3A1C     		mov	r2, r7
 766 014c 1E32     		add	r2, r2, #30
 767 014e 1278     		ldrb	r2, [r2]
 768 0150 8A1A     		sub	r2, r1, r2
 769 0152 013A     		sub	r2, r2, #1
 770 0154 B969     		ldr	r1, [r7, #24]
 771 0156 8A18     		add	r2, r1, r2
 772 0158 1278     		ldrb	r2, [r2]
 773 015a 1A70     		strb	r2, [r3]
 381:../Generated_Code/UTIL1.c ****     ptr[(i-j)-1] = tmp;
 774              		.loc 1 381 0
 775 015c 3B1C     		mov	r3, r7
 776 015e 1F33     		add	r3, r3, #31
 777 0160 1A78     		ldrb	r2, [r3]
 778 0162 3B1C     		mov	r3, r7
 779 0164 1E33     		add	r3, r3, #30
 780 0166 1B78     		ldrb	r3, [r3]
 781 0168 D31A     		sub	r3, r2, r3
 782 016a 013B     		sub	r3, r3, #1
 783 016c BA69     		ldr	r2, [r7, #24]
 784 016e D318     		add	r3, r2, r3
 785 0170 3A1C     		mov	r2, r7
 786 0172 1632     		add	r2, r2, #22
 787 0174 1278     		ldrb	r2, [r2]
 788 0176 1A70     		strb	r2, [r3]
 378:../Generated_Code/UTIL1.c ****   for(j=0; j<(i/2); j++) { /* swap buffer */
 789              		.loc 1 378 0
 790 0178 3B1C     		mov	r3, r7
 791 017a 1E33     		add	r3, r3, #30
 792 017c 3A1C     		mov	r2, r7
 793 017e 1E32     		add	r2, r2, #30
 794 0180 1278     		ldrb	r2, [r2]
 795 0182 0132     		add	r2, r2, #1
 796 0184 1A70     		strb	r2, [r3]
 797              	.L35:
 378:../Generated_Code/UTIL1.c ****   for(j=0; j<(i/2); j++) { /* swap buffer */
 798              		.loc 1 378 0 is_stmt 0
 799 0186 3B1C     		mov	r3, r7
 800 0188 1F33     		add	r3, r3, #31
 801 018a 1B78     		ldrb	r3, [r3]
 802 018c 5B08     		lsr	r3, r3, #1
 803 018e DBB2     		uxtb	r3, r3
 804 0190 3A1C     		mov	r2, r7
 805 0192 1E32     		add	r2, r2, #30
 806 0194 1278     		ldrb	r2, [r2]
 807 0196 9A42     		cmp	r2, r3
 808 0198 C6D3     		bcc	.L36
 382:../Generated_Code/UTIL1.c ****   }
 383:../Generated_Code/UTIL1.c ****   ptr[i] = '\0';
 809              		.loc 1 383 0 is_stmt 1
 810 019a 3B1C     		mov	r3, r7
 811 019c 1F33     		add	r3, r3, #31
 812 019e 1B78     		ldrb	r3, [r3]
 813 01a0 BA69     		ldr	r2, [r7, #24]
 814 01a2 D318     		add	r3, r2, r3
 815 01a4 0022     		mov	r2, #0
 816 01a6 1A70     		strb	r2, [r3]
 817              	.L26:
 384:../Generated_Code/UTIL1.c **** }
 818              		.loc 1 384 0
 819 01a8 BD46     		mov	sp, r7
 820 01aa 09B0     		add	sp, sp, #36
 821              		@ sp needed for prologue
 822 01ac 90BD     		pop	{r4, r7, pc}
 823              	.L38:
 824 01ae C046     		.align	2
 825              	.L37:
 826 01b0 0080FFFF 		.word	-32768
 827 01b4 00000000 		.word	.LC0
 828              		.cfi_endproc
 829              	.LFE6:
 831              		.section	.text.ShiftRightAndFill,"ax",%progbits
 832              		.align	2
 833              		.code	16
 834              		.thumb_func
 836              	ShiftRightAndFill:
 837              	.LFB7:
 385:../Generated_Code/UTIL1.c **** 
 386:../Generated_Code/UTIL1.c **** /*
 387:../Generated_Code/UTIL1.c **** ** ===================================================================
 388:../Generated_Code/UTIL1.c **** **     Method      :  ShiftRightAndFill (component Utility)
 389:../Generated_Code/UTIL1.c **** **
 390:../Generated_Code/UTIL1.c **** **     Description :
 391:../Generated_Code/UTIL1.c **** **         Moves the content of a string to the right and fills the space 
 392:../Generated_Code/UTIL1.c **** **         on the left side with a pattern
 393:../Generated_Code/UTIL1.c **** **         This method is internal. It is used by Processor Expert only.
 394:../Generated_Code/UTIL1.c **** ** ===================================================================
 395:../Generated_Code/UTIL1.c **** */
 396:../Generated_Code/UTIL1.c **** static void ShiftRightAndFill(uint8_t *dst, uint8_t fill, uint8_t nofFill)
 397:../Generated_Code/UTIL1.c **** {
 838              		.loc 1 397 0
 839              		.cfi_startproc
 840 0000 80B5     		push	{r7, lr}
 841              	.LCFI21:
 842              		.cfi_def_cfa_offset 8
 843              		.cfi_offset 7, -8
 844              		.cfi_offset 14, -4
 845 0002 84B0     		sub	sp, sp, #16
 846              	.LCFI22:
 847              		.cfi_def_cfa_offset 24
 848 0004 00AF     		add	r7, sp, #0
 849              	.LCFI23:
 850              		.cfi_def_cfa_register 7
 851 0006 7860     		str	r0, [r7, #4]
 852 0008 FB1C     		add	r3, r7, #3
 853 000a 1970     		strb	r1, [r3]
 854 000c BB1C     		add	r3, r7, #2
 855 000e 1A70     		strb	r2, [r3]
 398:../Generated_Code/UTIL1.c ****   signed char i, j;
 399:../Generated_Code/UTIL1.c **** 
 400:../Generated_Code/UTIL1.c ****   j = 0;
 856              		.loc 1 400 0
 857 0010 3B1C     		mov	r3, r7
 858 0012 0E33     		add	r3, r3, #14
 859 0014 0022     		mov	r2, #0
 860 0016 1A70     		strb	r2, [r3]
 401:../Generated_Code/UTIL1.c ****   while(dst[j] != '\0') {
 861              		.loc 1 401 0
 862 0018 06E0     		b	.L40
 863              	.L41:
 402:../Generated_Code/UTIL1.c ****     j++;
 864              		.loc 1 402 0
 865 001a 3B1C     		mov	r3, r7
 866 001c 0E33     		add	r3, r3, #14
 867 001e 3A1C     		mov	r2, r7
 868 0020 0E32     		add	r2, r2, #14
 869 0022 1278     		ldrb	r2, [r2]
 870 0024 0132     		add	r2, r2, #1
 871 0026 1A70     		strb	r2, [r3]
 872              	.L40:
 401:../Generated_Code/UTIL1.c ****   while(dst[j] != '\0') {
 873              		.loc 1 401 0
 874 0028 3B1C     		mov	r3, r7
 875 002a 0E33     		add	r3, r3, #14
 876 002c 1B78     		ldrb	r3, [r3]
 877 002e 5BB2     		sxtb	r3, r3
 878 0030 7A68     		ldr	r2, [r7, #4]
 879 0032 D318     		add	r3, r2, r3
 880 0034 1B78     		ldrb	r3, [r3]
 881 0036 002B     		cmp	r3, #0
 882 0038 EFD1     		bne	.L41
 403:../Generated_Code/UTIL1.c ****   }
 404:../Generated_Code/UTIL1.c ****   i = (signed char)nofFill;
 883              		.loc 1 404 0
 884 003a 3B1C     		mov	r3, r7
 885 003c 0F33     		add	r3, r3, #15
 886 003e BA1C     		add	r2, r7, #2
 887 0040 1278     		ldrb	r2, [r2]
 888 0042 1A70     		strb	r2, [r3]
 405:../Generated_Code/UTIL1.c ****   if (i==j) {
 889              		.loc 1 405 0
 890 0044 3A1C     		mov	r2, r7
 891 0046 0F32     		add	r2, r2, #15
 892 0048 3B1C     		mov	r3, r7
 893 004a 0E33     		add	r3, r3, #14
 894 004c 1278     		ldrb	r2, [r2]
 895 004e 52B2     		sxtb	r2, r2
 896 0050 1B78     		ldrb	r3, [r3]
 897 0052 5BB2     		sxtb	r3, r3
 898 0054 9A42     		cmp	r2, r3
 899 0056 41D0     		beq	.L39
 406:../Generated_Code/UTIL1.c ****     /* nothing to do, we are done */
 407:../Generated_Code/UTIL1.c ****   } else if (i>j) {
 900              		.loc 1 407 0
 901 0058 3A1C     		mov	r2, r7
 902 005a 0F32     		add	r2, r2, #15
 903 005c 3B1C     		mov	r3, r7
 904 005e 0E33     		add	r3, r3, #14
 905 0060 1278     		ldrb	r2, [r2]
 906 0062 52B2     		sxtb	r2, r2
 907 0064 1B78     		ldrb	r3, [r3]
 908 0066 5BB2     		sxtb	r3, r3
 909 0068 9A42     		cmp	r2, r3
 910 006a 37DD     		ble	.L39
 408:../Generated_Code/UTIL1.c ****     while (j>=0) {
 911              		.loc 1 408 0
 912 006c 1BE0     		b	.L43
 913              	.L44:
 409:../Generated_Code/UTIL1.c ****       dst[i] = dst[j];
 914              		.loc 1 409 0
 915 006e 3B1C     		mov	r3, r7
 916 0070 0F33     		add	r3, r3, #15
 917 0072 1B78     		ldrb	r3, [r3]
 918 0074 5BB2     		sxtb	r3, r3
 919 0076 7A68     		ldr	r2, [r7, #4]
 920 0078 D318     		add	r3, r2, r3
 921 007a 3A1C     		mov	r2, r7
 922 007c 0E32     		add	r2, r2, #14
 923 007e 1278     		ldrb	r2, [r2]
 924 0080 52B2     		sxtb	r2, r2
 925 0082 7968     		ldr	r1, [r7, #4]
 926 0084 8A18     		add	r2, r1, r2
 927 0086 1278     		ldrb	r2, [r2]
 928 0088 1A70     		strb	r2, [r3]
 410:../Generated_Code/UTIL1.c ****       i--; j--;
 929              		.loc 1 410 0
 930 008a 3B1C     		mov	r3, r7
 931 008c 0F33     		add	r3, r3, #15
 932 008e 3A1C     		mov	r2, r7
 933 0090 0F32     		add	r2, r2, #15
 934 0092 1278     		ldrb	r2, [r2]
 935 0094 013A     		sub	r2, r2, #1
 936 0096 1A70     		strb	r2, [r3]
 937 0098 3B1C     		mov	r3, r7
 938 009a 0E33     		add	r3, r3, #14
 939 009c 3A1C     		mov	r2, r7
 940 009e 0E32     		add	r2, r2, #14
 941 00a0 1278     		ldrb	r2, [r2]
 942 00a2 013A     		sub	r2, r2, #1
 943 00a4 1A70     		strb	r2, [r3]
 944              	.L43:
 408:../Generated_Code/UTIL1.c ****     while (j>=0) {
 945              		.loc 1 408 0
 946 00a6 3B1C     		mov	r3, r7
 947 00a8 0E33     		add	r3, r3, #14
 948 00aa 1B78     		ldrb	r3, [r3]
 949 00ac 7F2B     		cmp	r3, #127
 950 00ae DED9     		bls	.L44
 411:../Generated_Code/UTIL1.c ****     }
 412:../Generated_Code/UTIL1.c ****     while(i>=0) {
 951              		.loc 1 412 0
 952 00b0 0FE0     		b	.L45
 953              	.L46:
 413:../Generated_Code/UTIL1.c ****       dst[i] = fill;
 954              		.loc 1 413 0
 955 00b2 3B1C     		mov	r3, r7
 956 00b4 0F33     		add	r3, r3, #15
 957 00b6 1B78     		ldrb	r3, [r3]
 958 00b8 5BB2     		sxtb	r3, r3
 959 00ba 7A68     		ldr	r2, [r7, #4]
 960 00bc D318     		add	r3, r2, r3
 961 00be FA1C     		add	r2, r7, #3
 962 00c0 1278     		ldrb	r2, [r2]
 963 00c2 1A70     		strb	r2, [r3]
 414:../Generated_Code/UTIL1.c ****       i--;
 964              		.loc 1 414 0
 965 00c4 3B1C     		mov	r3, r7
 966 00c6 0F33     		add	r3, r3, #15
 967 00c8 3A1C     		mov	r2, r7
 968 00ca 0F32     		add	r2, r2, #15
 969 00cc 1278     		ldrb	r2, [r2]
 970 00ce 013A     		sub	r2, r2, #1
 971 00d0 1A70     		strb	r2, [r3]
 972              	.L45:
 412:../Generated_Code/UTIL1.c ****     while(i>=0) {
 973              		.loc 1 412 0
 974 00d2 3B1C     		mov	r3, r7
 975 00d4 0F33     		add	r3, r3, #15
 976 00d6 1B78     		ldrb	r3, [r3]
 977 00d8 7F2B     		cmp	r3, #127
 978 00da EAD9     		bls	.L46
 979              	.L39:
 415:../Generated_Code/UTIL1.c ****     }
 416:../Generated_Code/UTIL1.c ****   } else {
 417:../Generated_Code/UTIL1.c ****     /* hmmm, not enough space, return what we have, do nothing */
 418:../Generated_Code/UTIL1.c ****   }
 419:../Generated_Code/UTIL1.c **** }
 980              		.loc 1 419 0
 981 00dc BD46     		mov	sp, r7
 982 00de 04B0     		add	sp, sp, #16
 983              		@ sp needed for prologue
 984 00e0 80BD     		pop	{r7, pc}
 985              		.cfi_endproc
 986              	.LFE7:
 988 00e2 C046     		.section	.text.UTIL1_Num16sToStrFormatted,"ax",%progbits
 989              		.align	2
 990              		.global	UTIL1_Num16sToStrFormatted
 991              		.code	16
 992              		.thumb_func
 994              	UTIL1_Num16sToStrFormatted:
 995              	.LFB8:
 420:../Generated_Code/UTIL1.c **** 
 421:../Generated_Code/UTIL1.c **** /*
 422:../Generated_Code/UTIL1.c **** ** ===================================================================
 423:../Generated_Code/UTIL1.c **** **     Method      :  UTIL1_Num16sToStrFormatted (component Utility)
 424:../Generated_Code/UTIL1.c **** **     Description :
 425:../Generated_Code/UTIL1.c **** **         Converts a 16bit signed value to string.
 426:../Generated_Code/UTIL1.c **** **     Parameters  :
 427:../Generated_Code/UTIL1.c **** **         NAME            - DESCRIPTION
 428:../Generated_Code/UTIL1.c **** **       * dst             - Pointer to destination string
 429:../Generated_Code/UTIL1.c **** **         dstSize         - Size of the destination buffer (in
 430:../Generated_Code/UTIL1.c **** **                           bytes).
 431:../Generated_Code/UTIL1.c **** **         val             - Value to convert.
 432:../Generated_Code/UTIL1.c **** **         fill            - Fill character
 433:../Generated_Code/UTIL1.c **** **         nofFill         - Number of fill characters
 434:../Generated_Code/UTIL1.c **** **     Returns     : Nothing
 435:../Generated_Code/UTIL1.c **** ** ===================================================================
 436:../Generated_Code/UTIL1.c **** */
 437:../Generated_Code/UTIL1.c **** /*!
 438:../Generated_Code/UTIL1.c ****   \brief Converts a 16bit signed number to a string, in a formatted way (like printf with "%0d").
 439:../Generated_Code/UTIL1.c ****      Always terminates the result string.
 440:../Generated_Code/UTIL1.c ****      Note: count is the size of dst INCLUDING zero byte.
 441:../Generated_Code/UTIL1.c ****      Precondition: src, dst != NULL
 442:../Generated_Code/UTIL1.c ****   \param[in,out] dst Start of string buffer, where to append the number string
 443:../Generated_Code/UTIL1.c ****   \param[in] dstSize Size of the destination buffer, in uint8_ts.
 444:../Generated_Code/UTIL1.c ****   \param[in] val The 16bit signed number to add
 445:../Generated_Code/UTIL1.c ****   \param[in] fill Fill character, typically ' ' (like for "%2d" or '0' (for "%02d")
 446:../Generated_Code/UTIL1.c ****   \param[in] nofFill Size for the format (right aligned) string, e.g. '2' for "%2d"
 447:../Generated_Code/UTIL1.c **** */
 448:../Generated_Code/UTIL1.c **** void UTIL1_Num16sToStrFormatted(uint8_t *dst, size_t dstSize, int16_t val, char fill, uint8_t nofFi
 449:../Generated_Code/UTIL1.c **** {
 996              		.loc 1 449 0
 997              		.cfi_startproc
 998 0000 80B5     		push	{r7, lr}
 999              	.LCFI24:
 1000              		.cfi_def_cfa_offset 8
 1001              		.cfi_offset 7, -8
 1002              		.cfi_offset 14, -4
 1003 0002 84B0     		sub	sp, sp, #16
 1004              	.LCFI25:
 1005              		.cfi_def_cfa_offset 24
 1006 0004 00AF     		add	r7, sp, #0
 1007              	.LCFI26:
 1008              		.cfi_def_cfa_register 7
 1009 0006 F860     		str	r0, [r7, #12]
 1010 0008 B960     		str	r1, [r7, #8]
 1011 000a 111C     		mov	r1, r2
 1012 000c 1A1C     		mov	r2, r3
 1013 000e BB1D     		add	r3, r7, #6
 1014 0010 1980     		strh	r1, [r3]
 1015 0012 7B1D     		add	r3, r7, #5
 1016 0014 1A70     		strb	r2, [r3]
 450:../Generated_Code/UTIL1.c ****   UTIL1_Num16sToStr(dst, dstSize, val);
 1017              		.loc 1 450 0
 1018 0016 F968     		ldr	r1, [r7, #12]
 1019 0018 BA68     		ldr	r2, [r7, #8]
 1020 001a BB1D     		add	r3, r7, #6
 1021 001c 0020     		mov	r0, #0
 1022 001e 1B5E     		ldrsh	r3, [r3, r0]
 1023 0020 081C     		mov	r0, r1
 1024 0022 111C     		mov	r1, r2
 1025 0024 1A1C     		mov	r2, r3
 1026 0026 FFF7FEFF 		bl	UTIL1_Num16sToStr
 451:../Generated_Code/UTIL1.c ****   ShiftRightAndFill(dst, fill, nofFill);
 1027              		.loc 1 451 0
 1028 002a F968     		ldr	r1, [r7, #12]
 1029 002c 7B1D     		add	r3, r7, #5
 1030 002e 1A78     		ldrb	r2, [r3]
 1031 0030 3B1C     		mov	r3, r7
 1032 0032 1833     		add	r3, r3, #24
 1033 0034 1B78     		ldrb	r3, [r3]
 1034 0036 081C     		mov	r0, r1
 1035 0038 111C     		mov	r1, r2
 1036 003a 1A1C     		mov	r2, r3
 1037 003c FFF7FEFF 		bl	ShiftRightAndFill
 452:../Generated_Code/UTIL1.c **** }
 1038              		.loc 1 452 0
 1039 0040 BD46     		mov	sp, r7
 1040 0042 04B0     		add	sp, sp, #16
 1041              		@ sp needed for prologue
 1042 0044 80BD     		pop	{r7, pc}
 1043              		.cfi_endproc
 1044              	.LFE8:
 1046 0046 C046     		.section	.text.UTIL1_Num16uToStrFormatted,"ax",%progbits
 1047              		.align	2
 1048              		.global	UTIL1_Num16uToStrFormatted
 1049              		.code	16
 1050              		.thumb_func
 1052              	UTIL1_Num16uToStrFormatted:
 1053              	.LFB9:
 453:../Generated_Code/UTIL1.c **** 
 454:../Generated_Code/UTIL1.c **** /*
 455:../Generated_Code/UTIL1.c **** ** ===================================================================
 456:../Generated_Code/UTIL1.c **** **     Method      :  UTIL1_Num16uToStrFormatted (component Utility)
 457:../Generated_Code/UTIL1.c **** **     Description :
 458:../Generated_Code/UTIL1.c **** **         Converts a 16bit unsigned value to string.
 459:../Generated_Code/UTIL1.c **** **     Parameters  :
 460:../Generated_Code/UTIL1.c **** **         NAME            - DESCRIPTION
 461:../Generated_Code/UTIL1.c **** **       * dst             - Pointer to destination string
 462:../Generated_Code/UTIL1.c **** **         dstSize         - Size of the destination buffer (in
 463:../Generated_Code/UTIL1.c **** **                           bytes).
 464:../Generated_Code/UTIL1.c **** **         val             - Value to convert.
 465:../Generated_Code/UTIL1.c **** **         fill            - Fill character
 466:../Generated_Code/UTIL1.c **** **         nofFill         - Number of fill characters
 467:../Generated_Code/UTIL1.c **** **     Returns     : Nothing
 468:../Generated_Code/UTIL1.c **** ** ===================================================================
 469:../Generated_Code/UTIL1.c **** */
 470:../Generated_Code/UTIL1.c **** /*!
 471:../Generated_Code/UTIL1.c ****   \brief Converts a 16bit unsigned number to a string, in a formatted way (like printf with "%0d").
 472:../Generated_Code/UTIL1.c ****      Always terminates the result string.
 473:../Generated_Code/UTIL1.c ****      Note: count is the size of dst INCLUDING zero byte.
 474:../Generated_Code/UTIL1.c ****      Precondition: src, dst != NULL
 475:../Generated_Code/UTIL1.c ****   \param[in,out] dst Start of string buffer, where to append the number string
 476:../Generated_Code/UTIL1.c ****   \param[in] dstSize Size of the destination buffer, in uint8_ts.
 477:../Generated_Code/UTIL1.c ****   \param[in] val The 16bit unsigned number to add
 478:../Generated_Code/UTIL1.c ****   \param[in] fill Fill character, typically ' ' (like for "%2d" or '0' (for "%02d")
 479:../Generated_Code/UTIL1.c ****   \param[in] nofFill Size for the format (right aligned) string, e.g. '2' for "%2d"
 480:../Generated_Code/UTIL1.c **** */
 481:../Generated_Code/UTIL1.c **** void UTIL1_Num16uToStrFormatted(uint8_t *dst, size_t dstSize, uint16_t val, char fill, uint8_t nofF
 482:../Generated_Code/UTIL1.c **** {
 1054              		.loc 1 482 0
 1055              		.cfi_startproc
 1056 0000 80B5     		push	{r7, lr}
 1057              	.LCFI27:
 1058              		.cfi_def_cfa_offset 8
 1059              		.cfi_offset 7, -8
 1060              		.cfi_offset 14, -4
 1061 0002 84B0     		sub	sp, sp, #16
 1062              	.LCFI28:
 1063              		.cfi_def_cfa_offset 24
 1064 0004 00AF     		add	r7, sp, #0
 1065              	.LCFI29:
 1066              		.cfi_def_cfa_register 7
 1067 0006 F860     		str	r0, [r7, #12]
 1068 0008 B960     		str	r1, [r7, #8]
 1069 000a 111C     		mov	r1, r2
 1070 000c 1A1C     		mov	r2, r3
 1071 000e BB1D     		add	r3, r7, #6
 1072 0010 1980     		strh	r1, [r3]
 1073 0012 7B1D     		add	r3, r7, #5
 1074 0014 1A70     		strb	r2, [r3]
 483:../Generated_Code/UTIL1.c ****   UTIL1_Num16uToStr(dst, dstSize, val);
 1075              		.loc 1 483 0
 1076 0016 F968     		ldr	r1, [r7, #12]
 1077 0018 BA68     		ldr	r2, [r7, #8]
 1078 001a BB1D     		add	r3, r7, #6
 1079 001c 1B88     		ldrh	r3, [r3]
 1080 001e 081C     		mov	r0, r1
 1081 0020 111C     		mov	r1, r2
 1082 0022 1A1C     		mov	r2, r3
 1083 0024 FFF7FEFF 		bl	UTIL1_Num16uToStr
 484:../Generated_Code/UTIL1.c ****   ShiftRightAndFill(dst, fill, nofFill);
 1084              		.loc 1 484 0
 1085 0028 F968     		ldr	r1, [r7, #12]
 1086 002a 7B1D     		add	r3, r7, #5
 1087 002c 1A78     		ldrb	r2, [r3]
 1088 002e 3B1C     		mov	r3, r7
 1089 0030 1833     		add	r3, r3, #24
 1090 0032 1B78     		ldrb	r3, [r3]
 1091 0034 081C     		mov	r0, r1
 1092 0036 111C     		mov	r1, r2
 1093 0038 1A1C     		mov	r2, r3
 1094 003a FFF7FEFF 		bl	ShiftRightAndFill
 485:../Generated_Code/UTIL1.c **** }
 1095              		.loc 1 485 0
 1096 003e BD46     		mov	sp, r7
 1097 0040 04B0     		add	sp, sp, #16
 1098              		@ sp needed for prologue
 1099 0042 80BD     		pop	{r7, pc}
 1100              		.cfi_endproc
 1101              	.LFE9:
 1103              		.section	.text.UTIL1_Num32uToStrFormatted,"ax",%progbits
 1104              		.align	2
 1105              		.global	UTIL1_Num32uToStrFormatted
 1106              		.code	16
 1107              		.thumb_func
 1109              	UTIL1_Num32uToStrFormatted:
 1110              	.LFB10:
 486:../Generated_Code/UTIL1.c **** 
 487:../Generated_Code/UTIL1.c **** /*
 488:../Generated_Code/UTIL1.c **** ** ===================================================================
 489:../Generated_Code/UTIL1.c **** **     Method      :  UTIL1_Num32uToStrFormatted (component Utility)
 490:../Generated_Code/UTIL1.c **** **     Description :
 491:../Generated_Code/UTIL1.c **** **         Converts a 32bit unsigned value to string.
 492:../Generated_Code/UTIL1.c **** **     Parameters  :
 493:../Generated_Code/UTIL1.c **** **         NAME            - DESCRIPTION
 494:../Generated_Code/UTIL1.c **** **       * dst             - Pointer to destination string
 495:../Generated_Code/UTIL1.c **** **         dstSize         - Size of the destination buffer (in
 496:../Generated_Code/UTIL1.c **** **                           bytes).
 497:../Generated_Code/UTIL1.c **** **         val             - Value to convert.
 498:../Generated_Code/UTIL1.c **** **         fill            - Fill character
 499:../Generated_Code/UTIL1.c **** **         nofFill         - Number of fill characters
 500:../Generated_Code/UTIL1.c **** **     Returns     : Nothing
 501:../Generated_Code/UTIL1.c **** ** ===================================================================
 502:../Generated_Code/UTIL1.c **** */
 503:../Generated_Code/UTIL1.c **** /*!
 504:../Generated_Code/UTIL1.c ****   \brief Converts a 32bit unsigned number to a string, in a formatted way (like printf with "%0d").
 505:../Generated_Code/UTIL1.c ****      Always terminates the result string.
 506:../Generated_Code/UTIL1.c ****      Note: count is the size of dst INCLUDING zero byte.
 507:../Generated_Code/UTIL1.c ****      Precondition: src, dst != NULL
 508:../Generated_Code/UTIL1.c ****   \param[in,out] dst Start of string buffer, where to append the number string
 509:../Generated_Code/UTIL1.c ****   \param[in] dstSize Size of the destination buffer, in uint8_ts.
 510:../Generated_Code/UTIL1.c ****   \param[in] val The 32bit unsigned number to add
 511:../Generated_Code/UTIL1.c ****   \param[in] fill Fill character, typically ' ' (like for "%2d" or '0' (for "%02d")
 512:../Generated_Code/UTIL1.c ****   \param[in] nofFill Size for the format (right aligned) string, e.g. '2' for "%2d"
 513:../Generated_Code/UTIL1.c **** */
 514:../Generated_Code/UTIL1.c **** void UTIL1_Num32uToStrFormatted(uint8_t *dst, size_t dstSize, uint32_t val, char fill, uint8_t nofF
 515:../Generated_Code/UTIL1.c **** {
 1111              		.loc 1 515 0
 1112              		.cfi_startproc
 1113 0000 80B5     		push	{r7, lr}
 1114              	.LCFI30:
 1115              		.cfi_def_cfa_offset 8
 1116              		.cfi_offset 7, -8
 1117              		.cfi_offset 14, -4
 1118 0002 84B0     		sub	sp, sp, #16
 1119              	.LCFI31:
 1120              		.cfi_def_cfa_offset 24
 1121 0004 00AF     		add	r7, sp, #0
 1122              	.LCFI32:
 1123              		.cfi_def_cfa_register 7
 1124 0006 F860     		str	r0, [r7, #12]
 1125 0008 B960     		str	r1, [r7, #8]
 1126 000a 7A60     		str	r2, [r7, #4]
 1127 000c 1A1C     		mov	r2, r3
 1128 000e FB1C     		add	r3, r7, #3
 1129 0010 1A70     		strb	r2, [r3]
 516:../Generated_Code/UTIL1.c ****   UTIL1_Num32uToStr(dst, dstSize, val);
 1130              		.loc 1 516 0
 1131 0012 F968     		ldr	r1, [r7, #12]
 1132 0014 BA68     		ldr	r2, [r7, #8]
 1133 0016 7B68     		ldr	r3, [r7, #4]
 1134 0018 081C     		mov	r0, r1
 1135 001a 111C     		mov	r1, r2
 1136 001c 1A1C     		mov	r2, r3
 1137 001e FFF7FEFF 		bl	UTIL1_Num32uToStr
 517:../Generated_Code/UTIL1.c ****   ShiftRightAndFill(dst, fill, nofFill);
 1138              		.loc 1 517 0
 1139 0022 F968     		ldr	r1, [r7, #12]
 1140 0024 FB1C     		add	r3, r7, #3
 1141 0026 1A78     		ldrb	r2, [r3]
 1142 0028 3B1C     		mov	r3, r7
 1143 002a 1833     		add	r3, r3, #24
 1144 002c 1B78     		ldrb	r3, [r3]
 1145 002e 081C     		mov	r0, r1
 1146 0030 111C     		mov	r1, r2
 1147 0032 1A1C     		mov	r2, r3
 1148 0034 FFF7FEFF 		bl	ShiftRightAndFill
 518:../Generated_Code/UTIL1.c **** }
 1149              		.loc 1 518 0
 1150 0038 BD46     		mov	sp, r7
 1151 003a 04B0     		add	sp, sp, #16
 1152              		@ sp needed for prologue
 1153 003c 80BD     		pop	{r7, pc}
 1154              		.cfi_endproc
 1155              	.LFE10:
 1157 003e C046     		.section	.text.UTIL1_Num32sToStrFormatted,"ax",%progbits
 1158              		.align	2
 1159              		.global	UTIL1_Num32sToStrFormatted
 1160              		.code	16
 1161              		.thumb_func
 1163              	UTIL1_Num32sToStrFormatted:
 1164              	.LFB11:
 519:../Generated_Code/UTIL1.c **** 
 520:../Generated_Code/UTIL1.c **** /*
 521:../Generated_Code/UTIL1.c **** ** ===================================================================
 522:../Generated_Code/UTIL1.c **** **     Method      :  UTIL1_Num32sToStrFormatted (component Utility)
 523:../Generated_Code/UTIL1.c **** **     Description :
 524:../Generated_Code/UTIL1.c **** **         Converts a 32bit signed value to string.
 525:../Generated_Code/UTIL1.c **** **     Parameters  :
 526:../Generated_Code/UTIL1.c **** **         NAME            - DESCRIPTION
 527:../Generated_Code/UTIL1.c **** **       * dst             - Pointer to destination string
 528:../Generated_Code/UTIL1.c **** **         dstSize         - Size of the destination buffer (in
 529:../Generated_Code/UTIL1.c **** **                           bytes).
 530:../Generated_Code/UTIL1.c **** **         val             - Value to convert.
 531:../Generated_Code/UTIL1.c **** **         fill            - Fill character
 532:../Generated_Code/UTIL1.c **** **         nofFill         - Number of fill characters
 533:../Generated_Code/UTIL1.c **** **     Returns     : Nothing
 534:../Generated_Code/UTIL1.c **** ** ===================================================================
 535:../Generated_Code/UTIL1.c **** */
 536:../Generated_Code/UTIL1.c **** /*!
 537:../Generated_Code/UTIL1.c ****   \brief Converts a 32bit signed number to a string, in a formatted way (like printf with "%0d").
 538:../Generated_Code/UTIL1.c ****      Always terminates the result string.
 539:../Generated_Code/UTIL1.c ****      Note: count is the size of dst INCLUDING zero byte.
 540:../Generated_Code/UTIL1.c ****      Precondition: src, dst != NULL
 541:../Generated_Code/UTIL1.c ****   \param[in,out] dst Start of string buffer, where to append the number string
 542:../Generated_Code/UTIL1.c ****   \param[in] dstSize Size of the destination buffer, in uint8_ts.
 543:../Generated_Code/UTIL1.c ****   \param[in] val The 32bit signed number to add
 544:../Generated_Code/UTIL1.c ****   \param[in] fill Fill character, typically ' ' (like for "%2d" or '0' (for "%02d")
 545:../Generated_Code/UTIL1.c ****   \param[in] nofFill Size for the format (right aligned) string, e.g. '2' for "%2d"
 546:../Generated_Code/UTIL1.c **** */
 547:../Generated_Code/UTIL1.c **** void UTIL1_Num32sToStrFormatted(uint8_t *dst, size_t dstSize, int32_t val, char fill, uint8_t nofFi
 548:../Generated_Code/UTIL1.c **** {
 1165              		.loc 1 548 0
 1166              		.cfi_startproc
 1167 0000 80B5     		push	{r7, lr}
 1168              	.LCFI33:
 1169              		.cfi_def_cfa_offset 8
 1170              		.cfi_offset 7, -8
 1171              		.cfi_offset 14, -4
 1172 0002 84B0     		sub	sp, sp, #16
 1173              	.LCFI34:
 1174              		.cfi_def_cfa_offset 24
 1175 0004 00AF     		add	r7, sp, #0
 1176              	.LCFI35:
 1177              		.cfi_def_cfa_register 7
 1178 0006 F860     		str	r0, [r7, #12]
 1179 0008 B960     		str	r1, [r7, #8]
 1180 000a 7A60     		str	r2, [r7, #4]
 1181 000c 1A1C     		mov	r2, r3
 1182 000e FB1C     		add	r3, r7, #3
 1183 0010 1A70     		strb	r2, [r3]
 549:../Generated_Code/UTIL1.c ****   UTIL1_Num32sToStr(dst, dstSize, val);
 1184              		.loc 1 549 0
 1185 0012 F968     		ldr	r1, [r7, #12]
 1186 0014 BA68     		ldr	r2, [r7, #8]
 1187 0016 7B68     		ldr	r3, [r7, #4]
 1188 0018 081C     		mov	r0, r1
 1189 001a 111C     		mov	r1, r2
 1190 001c 1A1C     		mov	r2, r3
 1191 001e FFF7FEFF 		bl	UTIL1_Num32sToStr
 550:../Generated_Code/UTIL1.c ****   ShiftRightAndFill(dst, fill, nofFill);
 1192              		.loc 1 550 0
 1193 0022 F968     		ldr	r1, [r7, #12]
 1194 0024 FB1C     		add	r3, r7, #3
 1195 0026 1A78     		ldrb	r2, [r3]
 1196 0028 3B1C     		mov	r3, r7
 1197 002a 1833     		add	r3, r3, #24
 1198 002c 1B78     		ldrb	r3, [r3]
 1199 002e 081C     		mov	r0, r1
 1200 0030 111C     		mov	r1, r2
 1201 0032 1A1C     		mov	r2, r3
 1202 0034 FFF7FEFF 		bl	ShiftRightAndFill
 551:../Generated_Code/UTIL1.c **** }
 1203              		.loc 1 551 0
 1204 0038 BD46     		mov	sp, r7
 1205 003a 04B0     		add	sp, sp, #16
 1206              		@ sp needed for prologue
 1207 003c 80BD     		pop	{r7, pc}
 1208              		.cfi_endproc
 1209              	.LFE11:
 1211 003e C046     		.section	.text.UTIL1_strcatNum8u,"ax",%progbits
 1212              		.align	2
 1213              		.global	UTIL1_strcatNum8u
 1214              		.code	16
 1215              		.thumb_func
 1217              	UTIL1_strcatNum8u:
 1218              	.LFB12:
 552:../Generated_Code/UTIL1.c **** 
 553:../Generated_Code/UTIL1.c **** /*
 554:../Generated_Code/UTIL1.c **** ** ===================================================================
 555:../Generated_Code/UTIL1.c **** **     Method      :  UTIL1_strcatNum8u (component Utility)
 556:../Generated_Code/UTIL1.c **** **     Description :
 557:../Generated_Code/UTIL1.c **** **         Appends a 8bit unsigned value to a string buffer.
 558:../Generated_Code/UTIL1.c **** **     Parameters  :
 559:../Generated_Code/UTIL1.c **** **         NAME            - DESCRIPTION
 560:../Generated_Code/UTIL1.c **** **       * dst             - Pointer to destination string
 561:../Generated_Code/UTIL1.c **** **         dstSize         - Size of the destination buffer (in
 562:../Generated_Code/UTIL1.c **** **                           bytes).
 563:../Generated_Code/UTIL1.c **** **         val             - Value to convert.
 564:../Generated_Code/UTIL1.c **** **     Returns     : Nothing
 565:../Generated_Code/UTIL1.c **** ** ===================================================================
 566:../Generated_Code/UTIL1.c **** */
 567:../Generated_Code/UTIL1.c **** /*!
 568:../Generated_Code/UTIL1.c ****   \brief appends a 8bit unsigned number to a string. Always terminates the result string.
 569:../Generated_Code/UTIL1.c ****      Note: count is the size of dst INCLUDING zero byte.
 570:../Generated_Code/UTIL1.c ****      Precondition: src, dst != NULL
 571:../Generated_Code/UTIL1.c ****   \param[in,out] dst Start of string buffer, where to append the number string
 572:../Generated_Code/UTIL1.c ****   \param[in] dstSize The size of the buffer, including the zero byte
 573:../Generated_Code/UTIL1.c ****   \param[in] val The 8bit unsigned number to add
 574:../Generated_Code/UTIL1.c ****   */
 575:../Generated_Code/UTIL1.c **** void UTIL1_strcatNum8u(uint8_t *dst, size_t dstSize, uint8_t val)
 576:../Generated_Code/UTIL1.c **** {
 1219              		.loc 1 576 0
 1220              		.cfi_startproc
 1221 0000 80B5     		push	{r7, lr}
 1222              	.LCFI36:
 1223              		.cfi_def_cfa_offset 8
 1224              		.cfi_offset 7, -8
 1225              		.cfi_offset 14, -4
 1226 0002 86B0     		sub	sp, sp, #24
 1227              	.LCFI37:
 1228              		.cfi_def_cfa_offset 32
 1229 0004 00AF     		add	r7, sp, #0
 1230              	.LCFI38:
 1231              		.cfi_def_cfa_register 7
 1232 0006 F860     		str	r0, [r7, #12]
 1233 0008 B960     		str	r1, [r7, #8]
 1234 000a FB1D     		add	r3, r7, #7
 1235 000c 1A70     		strb	r2, [r3]
 577:../Generated_Code/UTIL1.c ****   unsigned char buf[sizeof("256")]; /* maximum buffer size we need */
 578:../Generated_Code/UTIL1.c **** 
 579:../Generated_Code/UTIL1.c ****   UTIL1_Num8uToStr(buf, sizeof(buf), val);
 1236              		.loc 1 579 0
 1237 000e 3A1C     		mov	r2, r7
 1238 0010 1432     		add	r2, r2, #20
 1239 0012 FB1D     		add	r3, r7, #7
 1240 0014 1B78     		ldrb	r3, [r3]
 1241 0016 101C     		mov	r0, r2
 1242 0018 0421     		mov	r1, #4
 1243 001a 1A1C     		mov	r2, r3
 1244 001c FFF7FEFF 		bl	UTIL1_Num8uToStr
 580:../Generated_Code/UTIL1.c ****   UTIL1_strcat(dst, dstSize, buf);
 1245              		.loc 1 580 0
 1246 0020 F968     		ldr	r1, [r7, #12]
 1247 0022 BA68     		ldr	r2, [r7, #8]
 1248 0024 3B1C     		mov	r3, r7
 1249 0026 1433     		add	r3, r3, #20
 1250 0028 081C     		mov	r0, r1
 1251 002a 111C     		mov	r1, r2
 1252 002c 1A1C     		mov	r2, r3
 1253 002e FFF7FEFF 		bl	UTIL1_strcat
 581:../Generated_Code/UTIL1.c **** }
 1254              		.loc 1 581 0
 1255 0032 BD46     		mov	sp, r7
 1256 0034 06B0     		add	sp, sp, #24
 1257              		@ sp needed for prologue
 1258 0036 80BD     		pop	{r7, pc}
 1259              		.cfi_endproc
 1260              	.LFE12:
 1262              		.section	.text.UTIL1_strcatNum8s,"ax",%progbits
 1263              		.align	2
 1264              		.global	UTIL1_strcatNum8s
 1265              		.code	16
 1266              		.thumb_func
 1268              	UTIL1_strcatNum8s:
 1269              	.LFB13:
 582:../Generated_Code/UTIL1.c **** 
 583:../Generated_Code/UTIL1.c **** /*
 584:../Generated_Code/UTIL1.c **** ** ===================================================================
 585:../Generated_Code/UTIL1.c **** **     Method      :  UTIL1_strcatNum8s (component Utility)
 586:../Generated_Code/UTIL1.c **** **     Description :
 587:../Generated_Code/UTIL1.c **** **         Appends a 8bit signed value to a string buffer.
 588:../Generated_Code/UTIL1.c **** **     Parameters  :
 589:../Generated_Code/UTIL1.c **** **         NAME            - DESCRIPTION
 590:../Generated_Code/UTIL1.c **** **       * dst             - Pointer to destination string
 591:../Generated_Code/UTIL1.c **** **         dstSize         - Size of the destination buffer (in
 592:../Generated_Code/UTIL1.c **** **                           bytes).
 593:../Generated_Code/UTIL1.c **** **         val             - Value to convert.
 594:../Generated_Code/UTIL1.c **** **     Returns     : Nothing
 595:../Generated_Code/UTIL1.c **** ** ===================================================================
 596:../Generated_Code/UTIL1.c **** */
 597:../Generated_Code/UTIL1.c **** /*!
 598:../Generated_Code/UTIL1.c ****   \brief appends a 8bit signed number to a string. Always terminates the result string.
 599:../Generated_Code/UTIL1.c ****      Note: count is the size of dst INCLUDING zero byte.
 600:../Generated_Code/UTIL1.c ****      Precondition: src, dst != NULL
 601:../Generated_Code/UTIL1.c ****   \param[in,out] dst Start of string buffer, where to append the number string
 602:../Generated_Code/UTIL1.c ****   \param[in] dstSize The size of the buffer, including the zero byte
 603:../Generated_Code/UTIL1.c ****   \param[in] val The 8bit signed number to add
 604:../Generated_Code/UTIL1.c ****   */
 605:../Generated_Code/UTIL1.c **** void UTIL1_strcatNum8s(uint8_t *dst, size_t dstSize, signed char val)
 606:../Generated_Code/UTIL1.c **** {
 1270              		.loc 1 606 0
 1271              		.cfi_startproc
 1272 0000 80B5     		push	{r7, lr}
 1273              	.LCFI39:
 1274              		.cfi_def_cfa_offset 8
 1275              		.cfi_offset 7, -8
 1276              		.cfi_offset 14, -4
 1277 0002 86B0     		sub	sp, sp, #24
 1278              	.LCFI40:
 1279              		.cfi_def_cfa_offset 32
 1280 0004 00AF     		add	r7, sp, #0
 1281              	.LCFI41:
 1282              		.cfi_def_cfa_register 7
 1283 0006 F860     		str	r0, [r7, #12]
 1284 0008 B960     		str	r1, [r7, #8]
 1285 000a FB1D     		add	r3, r7, #7
 1286 000c 1A70     		strb	r2, [r3]
 607:../Generated_Code/UTIL1.c ****   unsigned char buf[sizeof("-128")]; /* maximum buffer size we need */
 608:../Generated_Code/UTIL1.c **** 
 609:../Generated_Code/UTIL1.c ****   UTIL1_Num8sToStr(buf, sizeof(buf), val);
 1287              		.loc 1 609 0
 1288 000e 3A1C     		mov	r2, r7
 1289 0010 1032     		add	r2, r2, #16
 1290 0012 FB1D     		add	r3, r7, #7
 1291 0014 1B78     		ldrb	r3, [r3]
 1292 0016 5BB2     		sxtb	r3, r3
 1293 0018 101C     		mov	r0, r2
 1294 001a 0521     		mov	r1, #5
 1295 001c 1A1C     		mov	r2, r3
 1296 001e FFF7FEFF 		bl	UTIL1_Num8sToStr
 610:../Generated_Code/UTIL1.c ****   UTIL1_strcat(dst, dstSize, buf);
 1297              		.loc 1 610 0
 1298 0022 F968     		ldr	r1, [r7, #12]
 1299 0024 BA68     		ldr	r2, [r7, #8]
 1300 0026 3B1C     		mov	r3, r7
 1301 0028 1033     		add	r3, r3, #16
 1302 002a 081C     		mov	r0, r1
 1303 002c 111C     		mov	r1, r2
 1304 002e 1A1C     		mov	r2, r3
 1305 0030 FFF7FEFF 		bl	UTIL1_strcat
 611:../Generated_Code/UTIL1.c **** }
 1306              		.loc 1 611 0
 1307 0034 BD46     		mov	sp, r7
 1308 0036 06B0     		add	sp, sp, #24
 1309              		@ sp needed for prologue
 1310 0038 80BD     		pop	{r7, pc}
 1311              		.cfi_endproc
 1312              	.LFE13:
 1314 003a C046     		.section	.text.UTIL1_strcatNum16u,"ax",%progbits
 1315              		.align	2
 1316              		.global	UTIL1_strcatNum16u
 1317              		.code	16
 1318              		.thumb_func
 1320              	UTIL1_strcatNum16u:
 1321              	.LFB14:
 612:../Generated_Code/UTIL1.c **** 
 613:../Generated_Code/UTIL1.c **** /*
 614:../Generated_Code/UTIL1.c **** ** ===================================================================
 615:../Generated_Code/UTIL1.c **** **     Method      :  UTIL1_strcatNum16u (component Utility)
 616:../Generated_Code/UTIL1.c **** **     Description :
 617:../Generated_Code/UTIL1.c **** **         Appends a 16bit unsigned value to a string buffer.
 618:../Generated_Code/UTIL1.c **** **     Parameters  :
 619:../Generated_Code/UTIL1.c **** **         NAME            - DESCRIPTION
 620:../Generated_Code/UTIL1.c **** **       * dst             - Pointer to destination string
 621:../Generated_Code/UTIL1.c **** **         dstSize         - Size of the destination buffer (in
 622:../Generated_Code/UTIL1.c **** **                           bytes).
 623:../Generated_Code/UTIL1.c **** **         val             - Value to convert.
 624:../Generated_Code/UTIL1.c **** **     Returns     : Nothing
 625:../Generated_Code/UTIL1.c **** ** ===================================================================
 626:../Generated_Code/UTIL1.c **** */
 627:../Generated_Code/UTIL1.c **** /*!
 628:../Generated_Code/UTIL1.c ****   \brief appends a 16bit unsigned number to a string. Always terminates the result string.
 629:../Generated_Code/UTIL1.c ****      Note: count is the size of dst INCLUDING zero byte.
 630:../Generated_Code/UTIL1.c ****      Precondition: src, dst != NULL
 631:../Generated_Code/UTIL1.c ****   \param[in,out] dst Start of string buffer, where to append the number string
 632:../Generated_Code/UTIL1.c ****   \param[in] dstSize The size of the buffer, including the zero byte
 633:../Generated_Code/UTIL1.c ****   \param[in] val The 16bit unsigned number to add
 634:../Generated_Code/UTIL1.c ****   */
 635:../Generated_Code/UTIL1.c **** void UTIL1_strcatNum16u(uint8_t *dst, size_t dstSize, uint16_t val)
 636:../Generated_Code/UTIL1.c **** {
 1322              		.loc 1 636 0
 1323              		.cfi_startproc
 1324 0000 80B5     		push	{r7, lr}
 1325              	.LCFI42:
 1326              		.cfi_def_cfa_offset 8
 1327              		.cfi_offset 7, -8
 1328              		.cfi_offset 14, -4
 1329 0002 86B0     		sub	sp, sp, #24
 1330              	.LCFI43:
 1331              		.cfi_def_cfa_offset 32
 1332 0004 00AF     		add	r7, sp, #0
 1333              	.LCFI44:
 1334              		.cfi_def_cfa_register 7
 1335 0006 F860     		str	r0, [r7, #12]
 1336 0008 B960     		str	r1, [r7, #8]
 1337 000a BB1D     		add	r3, r7, #6
 1338 000c 1A80     		strh	r2, [r3]
 637:../Generated_Code/UTIL1.c ****   unsigned char buf[sizeof("32768")]; /* maximum buffer size we need */
 638:../Generated_Code/UTIL1.c **** 
 639:../Generated_Code/UTIL1.c ****   UTIL1_Num16uToStr(buf, sizeof(buf), val);
 1339              		.loc 1 639 0
 1340 000e 3A1C     		mov	r2, r7
 1341 0010 1032     		add	r2, r2, #16
 1342 0012 BB1D     		add	r3, r7, #6
 1343 0014 1B88     		ldrh	r3, [r3]
 1344 0016 101C     		mov	r0, r2
 1345 0018 0621     		mov	r1, #6
 1346 001a 1A1C     		mov	r2, r3
 1347 001c FFF7FEFF 		bl	UTIL1_Num16uToStr
 640:../Generated_Code/UTIL1.c ****   UTIL1_strcat(dst, dstSize, buf);
 1348              		.loc 1 640 0
 1349 0020 F968     		ldr	r1, [r7, #12]
 1350 0022 BA68     		ldr	r2, [r7, #8]
 1351 0024 3B1C     		mov	r3, r7
 1352 0026 1033     		add	r3, r3, #16
 1353 0028 081C     		mov	r0, r1
 1354 002a 111C     		mov	r1, r2
 1355 002c 1A1C     		mov	r2, r3
 1356 002e FFF7FEFF 		bl	UTIL1_strcat
 641:../Generated_Code/UTIL1.c **** }
 1357              		.loc 1 641 0
 1358 0032 BD46     		mov	sp, r7
 1359 0034 06B0     		add	sp, sp, #24
 1360              		@ sp needed for prologue
 1361 0036 80BD     		pop	{r7, pc}
 1362              		.cfi_endproc
 1363              	.LFE14:
 1365              		.section	.text.UTIL1_strcatNum16s,"ax",%progbits
 1366              		.align	2
 1367              		.global	UTIL1_strcatNum16s
 1368              		.code	16
 1369              		.thumb_func
 1371              	UTIL1_strcatNum16s:
 1372              	.LFB15:
 642:../Generated_Code/UTIL1.c **** 
 643:../Generated_Code/UTIL1.c **** /*
 644:../Generated_Code/UTIL1.c **** ** ===================================================================
 645:../Generated_Code/UTIL1.c **** **     Method      :  UTIL1_strcatNum16s (component Utility)
 646:../Generated_Code/UTIL1.c **** **     Description :
 647:../Generated_Code/UTIL1.c **** **         Appends a 16bit signed value to a string buffer.
 648:../Generated_Code/UTIL1.c **** **     Parameters  :
 649:../Generated_Code/UTIL1.c **** **         NAME            - DESCRIPTION
 650:../Generated_Code/UTIL1.c **** **       * dst             - Pointer to destination string
 651:../Generated_Code/UTIL1.c **** **         dstSize         - Size of the destination buffer (in
 652:../Generated_Code/UTIL1.c **** **                           bytes).
 653:../Generated_Code/UTIL1.c **** **         val             - Value to convert.
 654:../Generated_Code/UTIL1.c **** **     Returns     : Nothing
 655:../Generated_Code/UTIL1.c **** ** ===================================================================
 656:../Generated_Code/UTIL1.c **** */
 657:../Generated_Code/UTIL1.c **** /*!
 658:../Generated_Code/UTIL1.c ****   \brief appends a 16bit signed number to a string. Always terminates the result string.
 659:../Generated_Code/UTIL1.c ****      Note: count is the size of dst INCLUDING zero byte.
 660:../Generated_Code/UTIL1.c ****      Precondition: src, dst != NULL
 661:../Generated_Code/UTIL1.c ****   \param[in,out] dst Start of string buffer, where to append the number string
 662:../Generated_Code/UTIL1.c ****   \param[in] dstSize The size of the buffer, including the zero byte
 663:../Generated_Code/UTIL1.c ****   \param[in] val The 16bit signed number to add
 664:../Generated_Code/UTIL1.c ****   */
 665:../Generated_Code/UTIL1.c **** void UTIL1_strcatNum16s(uint8_t *dst, size_t dstSize, int16_t val)
 666:../Generated_Code/UTIL1.c **** {
 1373              		.loc 1 666 0
 1374              		.cfi_startproc
 1375 0000 80B5     		push	{r7, lr}
 1376              	.LCFI45:
 1377              		.cfi_def_cfa_offset 8
 1378              		.cfi_offset 7, -8
 1379              		.cfi_offset 14, -4
 1380 0002 86B0     		sub	sp, sp, #24
 1381              	.LCFI46:
 1382              		.cfi_def_cfa_offset 32
 1383 0004 00AF     		add	r7, sp, #0
 1384              	.LCFI47:
 1385              		.cfi_def_cfa_register 7
 1386 0006 F860     		str	r0, [r7, #12]
 1387 0008 B960     		str	r1, [r7, #8]
 1388 000a BB1D     		add	r3, r7, #6
 1389 000c 1A80     		strh	r2, [r3]
 667:../Generated_Code/UTIL1.c ****   unsigned char buf[sizeof("-32768")]; /* maximum buffer size we need */
 668:../Generated_Code/UTIL1.c **** 
 669:../Generated_Code/UTIL1.c ****   UTIL1_Num16sToStr(buf, sizeof(buf), val);
 1390              		.loc 1 669 0
 1391 000e 3A1C     		mov	r2, r7
 1392 0010 1032     		add	r2, r2, #16
 1393 0012 BB1D     		add	r3, r7, #6
 1394 0014 0021     		mov	r1, #0
 1395 0016 5B5E     		ldrsh	r3, [r3, r1]
 1396 0018 101C     		mov	r0, r2
 1397 001a 0721     		mov	r1, #7
 1398 001c 1A1C     		mov	r2, r3
 1399 001e FFF7FEFF 		bl	UTIL1_Num16sToStr
 670:../Generated_Code/UTIL1.c ****   UTIL1_strcat(dst, dstSize, buf);
 1400              		.loc 1 670 0
 1401 0022 F968     		ldr	r1, [r7, #12]
 1402 0024 BA68     		ldr	r2, [r7, #8]
 1403 0026 3B1C     		mov	r3, r7
 1404 0028 1033     		add	r3, r3, #16
 1405 002a 081C     		mov	r0, r1
 1406 002c 111C     		mov	r1, r2
 1407 002e 1A1C     		mov	r2, r3
 1408 0030 FFF7FEFF 		bl	UTIL1_strcat
 671:../Generated_Code/UTIL1.c **** }
 1409              		.loc 1 671 0
 1410 0034 BD46     		mov	sp, r7
 1411 0036 06B0     		add	sp, sp, #24
 1412              		@ sp needed for prologue
 1413 0038 80BD     		pop	{r7, pc}
 1414              		.cfi_endproc
 1415              	.LFE15:
 1417 003a C046     		.section	.text.UTIL1_strcatNum16uFormatted,"ax",%progbits
 1418              		.align	2
 1419              		.global	UTIL1_strcatNum16uFormatted
 1420              		.code	16
 1421              		.thumb_func
 1423              	UTIL1_strcatNum16uFormatted:
 1424              	.LFB16:
 672:../Generated_Code/UTIL1.c **** 
 673:../Generated_Code/UTIL1.c **** /*
 674:../Generated_Code/UTIL1.c **** ** ===================================================================
 675:../Generated_Code/UTIL1.c **** **     Method      :  UTIL1_strcatNum16uFormatted (component Utility)
 676:../Generated_Code/UTIL1.c **** **     Description :
 677:../Generated_Code/UTIL1.c **** **         Appends a 16bit unsigned value to a string buffer in a
 678:../Generated_Code/UTIL1.c **** **         formatted way.
 679:../Generated_Code/UTIL1.c **** **     Parameters  :
 680:../Generated_Code/UTIL1.c **** **         NAME            - DESCRIPTION
 681:../Generated_Code/UTIL1.c **** **       * dst             - Pointer to destination string
 682:../Generated_Code/UTIL1.c **** **         dstSize         - Size of the destination buffer (in
 683:../Generated_Code/UTIL1.c **** **                           bytes).
 684:../Generated_Code/UTIL1.c **** **         val             - Value to convert.
 685:../Generated_Code/UTIL1.c **** **         fill            - Fill character
 686:../Generated_Code/UTIL1.c **** **         nofFill         - Number of fill characters
 687:../Generated_Code/UTIL1.c **** **     Returns     : Nothing
 688:../Generated_Code/UTIL1.c **** ** ===================================================================
 689:../Generated_Code/UTIL1.c **** */
 690:../Generated_Code/UTIL1.c **** /*!
 691:../Generated_Code/UTIL1.c ****   \brief appends a 16bit unsigned number to a string, in a formatted way (like printf with "%0d".
 692:../Generated_Code/UTIL1.c ****      Always terminates the result string.
 693:../Generated_Code/UTIL1.c ****      Note: count is the size of dst INCLUDING zero byte.
 694:../Generated_Code/UTIL1.c ****      Precondition: src, dst != NULL
 695:../Generated_Code/UTIL1.c ****   \param[in,out] dst Start of string buffer, where to append the number string
 696:../Generated_Code/UTIL1.c ****   \param[in] dstSize The size of the buffer, including the zero byte
 697:../Generated_Code/UTIL1.c ****   \param[in] val The 16bit unsigned number to add
 698:../Generated_Code/UTIL1.c ****   \param[in] fill Fill character
 699:../Generated_Code/UTIL1.c ****   \param[in] nofFill Number of fill characters
 700:../Generated_Code/UTIL1.c ****   */
 701:../Generated_Code/UTIL1.c **** void UTIL1_strcatNum16uFormatted(uint8_t *dst, size_t dstSize, uint16_t val, char fill, uint8_t nof
 702:../Generated_Code/UTIL1.c **** {
 1425              		.loc 1 702 0
 1426              		.cfi_startproc
 1427 0000 90B5     		push	{r4, r7, lr}
 1428              	.LCFI48:
 1429              		.cfi_def_cfa_offset 12
 1430              		.cfi_offset 4, -12
 1431              		.cfi_offset 7, -8
 1432              		.cfi_offset 14, -4
 1433 0002 89B0     		sub	sp, sp, #36
 1434              	.LCFI49:
 1435              		.cfi_def_cfa_offset 48
 1436 0004 02AF     		add	r7, sp, #8
 1437              	.LCFI50:
 1438              		.cfi_def_cfa 7, 40
 1439 0006 F860     		str	r0, [r7, #12]
 1440 0008 B960     		str	r1, [r7, #8]
 1441 000a 111C     		mov	r1, r2
 1442 000c 1A1C     		mov	r2, r3
 1443 000e BB1D     		add	r3, r7, #6
 1444 0010 1980     		strh	r1, [r3]
 1445 0012 7B1D     		add	r3, r7, #5
 1446 0014 1A70     		strb	r2, [r3]
 703:../Generated_Code/UTIL1.c ****   unsigned char buf[sizeof("32768")]; /* maximum buffer size we need */
 704:../Generated_Code/UTIL1.c **** 
 705:../Generated_Code/UTIL1.c ****   UTIL1_Num16uToStrFormatted(buf, dstSize, val, fill, nofFill);
 1447              		.loc 1 705 0
 1448 0016 381C     		mov	r0, r7
 1449 0018 1030     		add	r0, r0, #16
 1450 001a B968     		ldr	r1, [r7, #8]
 1451 001c BB1D     		add	r3, r7, #6
 1452 001e 1A88     		ldrh	r2, [r3]
 1453 0020 7B1D     		add	r3, r7, #5
 1454 0022 1B78     		ldrb	r3, [r3]
 1455 0024 3C1C     		mov	r4, r7
 1456 0026 2834     		add	r4, r4, #40
 1457 0028 2478     		ldrb	r4, [r4]
 1458 002a 0094     		str	r4, [sp]
 1459 002c FFF7FEFF 		bl	UTIL1_Num16uToStrFormatted
 706:../Generated_Code/UTIL1.c ****   UTIL1_strcat(dst, dstSize, buf);
 1460              		.loc 1 706 0
 1461 0030 F968     		ldr	r1, [r7, #12]
 1462 0032 BA68     		ldr	r2, [r7, #8]
 1463 0034 3B1C     		mov	r3, r7
 1464 0036 1033     		add	r3, r3, #16
 1465 0038 081C     		mov	r0, r1
 1466 003a 111C     		mov	r1, r2
 1467 003c 1A1C     		mov	r2, r3
 1468 003e FFF7FEFF 		bl	UTIL1_strcat
 707:../Generated_Code/UTIL1.c **** }
 1469              		.loc 1 707 0
 1470 0042 BD46     		mov	sp, r7
 1471 0044 07B0     		add	sp, sp, #28
 1472              		@ sp needed for prologue
 1473 0046 90BD     		pop	{r4, r7, pc}
 1474              		.cfi_endproc
 1475              	.LFE16:
 1477              		.section	.text.UTIL1_strcatNum16sFormatted,"ax",%progbits
 1478              		.align	2
 1479              		.global	UTIL1_strcatNum16sFormatted
 1480              		.code	16
 1481              		.thumb_func
 1483              	UTIL1_strcatNum16sFormatted:
 1484              	.LFB17:
 708:../Generated_Code/UTIL1.c **** 
 709:../Generated_Code/UTIL1.c **** /*
 710:../Generated_Code/UTIL1.c **** ** ===================================================================
 711:../Generated_Code/UTIL1.c **** **     Method      :  UTIL1_strcatNum16sFormatted (component Utility)
 712:../Generated_Code/UTIL1.c **** **     Description :
 713:../Generated_Code/UTIL1.c **** **         Appends a 16bit signed value to a string buffer in a
 714:../Generated_Code/UTIL1.c **** **         formatted way.
 715:../Generated_Code/UTIL1.c **** **     Parameters  :
 716:../Generated_Code/UTIL1.c **** **         NAME            - DESCRIPTION
 717:../Generated_Code/UTIL1.c **** **       * dst             - Pointer to destination string
 718:../Generated_Code/UTIL1.c **** **         dstSize         - Size of the destination buffer (in
 719:../Generated_Code/UTIL1.c **** **                           bytes).
 720:../Generated_Code/UTIL1.c **** **         val             - Value to convert.
 721:../Generated_Code/UTIL1.c **** **         fill            - Fill character
 722:../Generated_Code/UTIL1.c **** **         nofFill         - Number of fill characters
 723:../Generated_Code/UTIL1.c **** **     Returns     : Nothing
 724:../Generated_Code/UTIL1.c **** ** ===================================================================
 725:../Generated_Code/UTIL1.c **** */
 726:../Generated_Code/UTIL1.c **** /*!
 727:../Generated_Code/UTIL1.c ****   \brief appends a 16bit signed number to a string, in a formatted way (like printf with "%0d".
 728:../Generated_Code/UTIL1.c ****      Always terminates the result string.
 729:../Generated_Code/UTIL1.c ****      Note: count is the size of dst INCLUDING zero byte.
 730:../Generated_Code/UTIL1.c ****      Precondition: src, dst != NULL
 731:../Generated_Code/UTIL1.c ****   \param[in,out] dst Start of string buffer, where to append the number string
 732:../Generated_Code/UTIL1.c ****   \param[in] dstSize The size of the buffer, including the zero byte
 733:../Generated_Code/UTIL1.c ****   \param[in] val The 16bit signed number to add
 734:../Generated_Code/UTIL1.c ****   \param[in] fill Fill character
 735:../Generated_Code/UTIL1.c ****   \param[in] nofFill Number of fill characters
 736:../Generated_Code/UTIL1.c ****   */
 737:../Generated_Code/UTIL1.c **** void UTIL1_strcatNum16sFormatted(uint8_t *dst, size_t dstSize, int16_t val, char fill, uint8_t nofF
 738:../Generated_Code/UTIL1.c **** {
 1485              		.loc 1 738 0
 1486              		.cfi_startproc
 1487 0000 90B5     		push	{r4, r7, lr}
 1488              	.LCFI51:
 1489              		.cfi_def_cfa_offset 12
 1490              		.cfi_offset 4, -12
 1491              		.cfi_offset 7, -8
 1492              		.cfi_offset 14, -4
 1493 0002 89B0     		sub	sp, sp, #36
 1494              	.LCFI52:
 1495              		.cfi_def_cfa_offset 48
 1496 0004 02AF     		add	r7, sp, #8
 1497              	.LCFI53:
 1498              		.cfi_def_cfa 7, 40
 1499 0006 F860     		str	r0, [r7, #12]
 1500 0008 B960     		str	r1, [r7, #8]
 1501 000a 111C     		mov	r1, r2
 1502 000c 1A1C     		mov	r2, r3
 1503 000e BB1D     		add	r3, r7, #6
 1504 0010 1980     		strh	r1, [r3]
 1505 0012 7B1D     		add	r3, r7, #5
 1506 0014 1A70     		strb	r2, [r3]
 739:../Generated_Code/UTIL1.c ****   unsigned char buf[sizeof("-32768")]; /* maximum buffer size we need */
 740:../Generated_Code/UTIL1.c **** 
 741:../Generated_Code/UTIL1.c ****   UTIL1_Num16sToStrFormatted(buf, dstSize, val, fill, nofFill);
 1507              		.loc 1 741 0
 1508 0016 381C     		mov	r0, r7
 1509 0018 1030     		add	r0, r0, #16
 1510 001a B968     		ldr	r1, [r7, #8]
 1511 001c BB1D     		add	r3, r7, #6
 1512 001e 0024     		mov	r4, #0
 1513 0020 1A5F     		ldrsh	r2, [r3, r4]
 1514 0022 7B1D     		add	r3, r7, #5
 1515 0024 1B78     		ldrb	r3, [r3]
 1516 0026 3C1C     		mov	r4, r7
 1517 0028 2834     		add	r4, r4, #40
 1518 002a 2478     		ldrb	r4, [r4]
 1519 002c 0094     		str	r4, [sp]
 1520 002e FFF7FEFF 		bl	UTIL1_Num16sToStrFormatted
 742:../Generated_Code/UTIL1.c ****   UTIL1_strcat(dst, dstSize, buf);
 1521              		.loc 1 742 0
 1522 0032 F968     		ldr	r1, [r7, #12]
 1523 0034 BA68     		ldr	r2, [r7, #8]
 1524 0036 3B1C     		mov	r3, r7
 1525 0038 1033     		add	r3, r3, #16
 1526 003a 081C     		mov	r0, r1
 1527 003c 111C     		mov	r1, r2
 1528 003e 1A1C     		mov	r2, r3
 1529 0040 FFF7FEFF 		bl	UTIL1_strcat
 743:../Generated_Code/UTIL1.c **** }
 1530              		.loc 1 743 0
 1531 0044 BD46     		mov	sp, r7
 1532 0046 07B0     		add	sp, sp, #28
 1533              		@ sp needed for prologue
 1534 0048 90BD     		pop	{r4, r7, pc}
 1535              		.cfi_endproc
 1536              	.LFE17:
 1538 004a C046     		.section	.text.UTIL1_strcatNum32uFormatted,"ax",%progbits
 1539              		.align	2
 1540              		.global	UTIL1_strcatNum32uFormatted
 1541              		.code	16
 1542              		.thumb_func
 1544              	UTIL1_strcatNum32uFormatted:
 1545              	.LFB18:
 744:../Generated_Code/UTIL1.c **** 
 745:../Generated_Code/UTIL1.c **** /*
 746:../Generated_Code/UTIL1.c **** ** ===================================================================
 747:../Generated_Code/UTIL1.c **** **     Method      :  UTIL1_strcatNum32uFormatted (component Utility)
 748:../Generated_Code/UTIL1.c **** **     Description :
 749:../Generated_Code/UTIL1.c **** **         Appends a 32bit unsigned value to a string buffer in a
 750:../Generated_Code/UTIL1.c **** **         formatted way.
 751:../Generated_Code/UTIL1.c **** **     Parameters  :
 752:../Generated_Code/UTIL1.c **** **         NAME            - DESCRIPTION
 753:../Generated_Code/UTIL1.c **** **       * dst             - Pointer to destination string
 754:../Generated_Code/UTIL1.c **** **         dstSize         - Size of the destination buffer (in
 755:../Generated_Code/UTIL1.c **** **                           bytes).
 756:../Generated_Code/UTIL1.c **** **         val             - Value to convert.
 757:../Generated_Code/UTIL1.c **** **         fill            - Fill character
 758:../Generated_Code/UTIL1.c **** **         nofFill         - Number of fill characters
 759:../Generated_Code/UTIL1.c **** **     Returns     : Nothing
 760:../Generated_Code/UTIL1.c **** ** ===================================================================
 761:../Generated_Code/UTIL1.c **** */
 762:../Generated_Code/UTIL1.c **** /*!
 763:../Generated_Code/UTIL1.c ****   \brief appends a 32bit unsigned number to a string, in a formatted way (like printf with "%0d".
 764:../Generated_Code/UTIL1.c ****      Always terminates the result string.
 765:../Generated_Code/UTIL1.c ****      Note: count is the size of dst INCLUDING zero byte.
 766:../Generated_Code/UTIL1.c ****      Precondition: src, dst != NULL
 767:../Generated_Code/UTIL1.c ****   \param[in,out] dst Start of string buffer, where to append the number string
 768:../Generated_Code/UTIL1.c ****   \param[in] dstSize The size of the buffer, including the zero byte
 769:../Generated_Code/UTIL1.c ****   \param[in] val The 32bit unsigned number to add
 770:../Generated_Code/UTIL1.c ****   \param[in] fill Fill character
 771:../Generated_Code/UTIL1.c ****   \param[in] nofFill Number of fill characters
 772:../Generated_Code/UTIL1.c ****   */
 773:../Generated_Code/UTIL1.c **** void UTIL1_strcatNum32uFormatted(uint8_t *dst, size_t dstSize, uint32_t val, char fill, uint8_t nof
 774:../Generated_Code/UTIL1.c **** {
 1546              		.loc 1 774 0
 1547              		.cfi_startproc
 1548 0000 90B5     		push	{r4, r7, lr}
 1549              	.LCFI54:
 1550              		.cfi_def_cfa_offset 12
 1551              		.cfi_offset 4, -12
 1552              		.cfi_offset 7, -8
 1553              		.cfi_offset 14, -4
 1554 0002 8BB0     		sub	sp, sp, #44
 1555              	.LCFI55:
 1556              		.cfi_def_cfa_offset 56
 1557 0004 02AF     		add	r7, sp, #8
 1558              	.LCFI56:
 1559              		.cfi_def_cfa 7, 48
 1560 0006 F860     		str	r0, [r7, #12]
 1561 0008 B960     		str	r1, [r7, #8]
 1562 000a 7A60     		str	r2, [r7, #4]
 1563 000c 1A1C     		mov	r2, r3
 1564 000e FB1C     		add	r3, r7, #3
 1565 0010 1A70     		strb	r2, [r3]
 775:../Generated_Code/UTIL1.c ****   unsigned char buf[sizeof("4294967295")]; /* maximum buffer size we need */
 776:../Generated_Code/UTIL1.c **** 
 777:../Generated_Code/UTIL1.c ****   UTIL1_Num32uToStrFormatted(buf, dstSize, val, fill, nofFill);
 1566              		.loc 1 777 0
 1567 0012 381C     		mov	r0, r7
 1568 0014 1430     		add	r0, r0, #20
 1569 0016 B968     		ldr	r1, [r7, #8]
 1570 0018 7A68     		ldr	r2, [r7, #4]
 1571 001a FB1C     		add	r3, r7, #3
 1572 001c 1B78     		ldrb	r3, [r3]
 1573 001e 3C1C     		mov	r4, r7
 1574 0020 3034     		add	r4, r4, #48
 1575 0022 2478     		ldrb	r4, [r4]
 1576 0024 0094     		str	r4, [sp]
 1577 0026 FFF7FEFF 		bl	UTIL1_Num32uToStrFormatted
 778:../Generated_Code/UTIL1.c ****   UTIL1_strcat(dst, dstSize, buf);
 1578              		.loc 1 778 0
 1579 002a F968     		ldr	r1, [r7, #12]
 1580 002c BA68     		ldr	r2, [r7, #8]
 1581 002e 3B1C     		mov	r3, r7
 1582 0030 1433     		add	r3, r3, #20
 1583 0032 081C     		mov	r0, r1
 1584 0034 111C     		mov	r1, r2
 1585 0036 1A1C     		mov	r2, r3
 1586 0038 FFF7FEFF 		bl	UTIL1_strcat
 779:../Generated_Code/UTIL1.c **** }
 1587              		.loc 1 779 0
 1588 003c BD46     		mov	sp, r7
 1589 003e 09B0     		add	sp, sp, #36
 1590              		@ sp needed for prologue
 1591 0040 90BD     		pop	{r4, r7, pc}
 1592              		.cfi_endproc
 1593              	.LFE18:
 1595 0042 C046     		.section	.text.UTIL1_strcatNum32sFormatted,"ax",%progbits
 1596              		.align	2
 1597              		.global	UTIL1_strcatNum32sFormatted
 1598              		.code	16
 1599              		.thumb_func
 1601              	UTIL1_strcatNum32sFormatted:
 1602              	.LFB19:
 780:../Generated_Code/UTIL1.c **** 
 781:../Generated_Code/UTIL1.c **** /*
 782:../Generated_Code/UTIL1.c **** ** ===================================================================
 783:../Generated_Code/UTIL1.c **** **     Method      :  UTIL1_strcatNum32sFormatted (component Utility)
 784:../Generated_Code/UTIL1.c **** **     Description :
 785:../Generated_Code/UTIL1.c **** **         Appends a 32bit signed value to a string buffer in a
 786:../Generated_Code/UTIL1.c **** **         formatted way.
 787:../Generated_Code/UTIL1.c **** **     Parameters  :
 788:../Generated_Code/UTIL1.c **** **         NAME            - DESCRIPTION
 789:../Generated_Code/UTIL1.c **** **       * dst             - Pointer to destination string
 790:../Generated_Code/UTIL1.c **** **         dstSize         - Size of the destination buffer (in
 791:../Generated_Code/UTIL1.c **** **                           bytes).
 792:../Generated_Code/UTIL1.c **** **         val             - Value to convert.
 793:../Generated_Code/UTIL1.c **** **         fill            - Fill character
 794:../Generated_Code/UTIL1.c **** **         nofFill         - Number of fill characters
 795:../Generated_Code/UTIL1.c **** **     Returns     : Nothing
 796:../Generated_Code/UTIL1.c **** ** ===================================================================
 797:../Generated_Code/UTIL1.c **** */
 798:../Generated_Code/UTIL1.c **** /*!
 799:../Generated_Code/UTIL1.c ****   \brief appends a 32bit signed number to a string, in a formatted way (like printf with "%0d".
 800:../Generated_Code/UTIL1.c ****      Always terminates the result string.
 801:../Generated_Code/UTIL1.c ****      Note: count is the size of dst INCLUDING zero byte.
 802:../Generated_Code/UTIL1.c ****      Precondition: src, dst != NULL
 803:../Generated_Code/UTIL1.c ****   \param[in,out] dst Start of string buffer, where to append the number string
 804:../Generated_Code/UTIL1.c ****   \param[in] dstSize The size of the buffer, including the zero byte
 805:../Generated_Code/UTIL1.c ****   \param[in] val The 32bit signed number to add
 806:../Generated_Code/UTIL1.c ****   \param[in] fill Fill character
 807:../Generated_Code/UTIL1.c ****   \param[in] nofFill Number of fill characters
 808:../Generated_Code/UTIL1.c ****   */
 809:../Generated_Code/UTIL1.c **** void UTIL1_strcatNum32sFormatted(uint8_t *dst, size_t dstSize, int32_t val, char fill, uint8_t nofF
 810:../Generated_Code/UTIL1.c **** {
 1603              		.loc 1 810 0
 1604              		.cfi_startproc
 1605 0000 90B5     		push	{r4, r7, lr}
 1606              	.LCFI57:
 1607              		.cfi_def_cfa_offset 12
 1608              		.cfi_offset 4, -12
 1609              		.cfi_offset 7, -8
 1610              		.cfi_offset 14, -4
 1611 0002 8BB0     		sub	sp, sp, #44
 1612              	.LCFI58:
 1613              		.cfi_def_cfa_offset 56
 1614 0004 02AF     		add	r7, sp, #8
 1615              	.LCFI59:
 1616              		.cfi_def_cfa 7, 48
 1617 0006 F860     		str	r0, [r7, #12]
 1618 0008 B960     		str	r1, [r7, #8]
 1619 000a 7A60     		str	r2, [r7, #4]
 1620 000c 1A1C     		mov	r2, r3
 1621 000e FB1C     		add	r3, r7, #3
 1622 0010 1A70     		strb	r2, [r3]
 811:../Generated_Code/UTIL1.c ****   unsigned char buf[sizeof("-4294967295")]; /* maximum buffer size we need */
 812:../Generated_Code/UTIL1.c **** 
 813:../Generated_Code/UTIL1.c ****   UTIL1_Num32sToStrFormatted(buf, dstSize, val, fill, nofFill);
 1623              		.loc 1 813 0
 1624 0012 381C     		mov	r0, r7
 1625 0014 1430     		add	r0, r0, #20
 1626 0016 B968     		ldr	r1, [r7, #8]
 1627 0018 7A68     		ldr	r2, [r7, #4]
 1628 001a FB1C     		add	r3, r7, #3
 1629 001c 1B78     		ldrb	r3, [r3]
 1630 001e 3C1C     		mov	r4, r7
 1631 0020 3034     		add	r4, r4, #48
 1632 0022 2478     		ldrb	r4, [r4]
 1633 0024 0094     		str	r4, [sp]
 1634 0026 FFF7FEFF 		bl	UTIL1_Num32sToStrFormatted
 814:../Generated_Code/UTIL1.c ****   UTIL1_strcat(dst, dstSize, buf);
 1635              		.loc 1 814 0
 1636 002a F968     		ldr	r1, [r7, #12]
 1637 002c BA68     		ldr	r2, [r7, #8]
 1638 002e 3B1C     		mov	r3, r7
 1639 0030 1433     		add	r3, r3, #20
 1640 0032 081C     		mov	r0, r1
 1641 0034 111C     		mov	r1, r2
 1642 0036 1A1C     		mov	r2, r3
 1643 0038 FFF7FEFF 		bl	UTIL1_strcat
 815:../Generated_Code/UTIL1.c **** }
 1644              		.loc 1 815 0
 1645 003c BD46     		mov	sp, r7
 1646 003e 09B0     		add	sp, sp, #36
 1647              		@ sp needed for prologue
 1648 0040 90BD     		pop	{r4, r7, pc}
 1649              		.cfi_endproc
 1650              	.LFE19:
 1652 0042 C046     		.section	.text.UTIL1_strcatNum8Hex,"ax",%progbits
 1653              		.align	2
 1654              		.global	UTIL1_strcatNum8Hex
 1655              		.code	16
 1656              		.thumb_func
 1658              	UTIL1_strcatNum8Hex:
 1659              	.LFB20:
 816:../Generated_Code/UTIL1.c **** 
 817:../Generated_Code/UTIL1.c **** /*
 818:../Generated_Code/UTIL1.c **** ** ===================================================================
 819:../Generated_Code/UTIL1.c **** **     Method      :  UTIL1_strcatNum8Hex (component Utility)
 820:../Generated_Code/UTIL1.c **** **     Description :
 821:../Generated_Code/UTIL1.c **** **         Appends a 8bit unsigned value to a string buffer as hex
 822:../Generated_Code/UTIL1.c **** **         number (without a 0x prefix).
 823:../Generated_Code/UTIL1.c **** **     Parameters  :
 824:../Generated_Code/UTIL1.c **** **         NAME            - DESCRIPTION
 825:../Generated_Code/UTIL1.c **** **       * dst             - Pointer to destination string
 826:../Generated_Code/UTIL1.c **** **         dstSize         - Size of the destination buffer (in
 827:../Generated_Code/UTIL1.c **** **                           bytes).
 828:../Generated_Code/UTIL1.c **** **         num             - Value to convert.
 829:../Generated_Code/UTIL1.c **** **     Returns     : Nothing
 830:../Generated_Code/UTIL1.c **** ** ===================================================================
 831:../Generated_Code/UTIL1.c **** */
 832:../Generated_Code/UTIL1.c **** /*!
 833:../Generated_Code/UTIL1.c ****   \brief Adds a 8bit number as hex value to a string.
 834:../Generated_Code/UTIL1.c ****   \param[in,out] dst Start of string buffer, where to append the number string
 835:../Generated_Code/UTIL1.c ****   \param[in] dstSize The size of the buffer, including the zero byte
 836:../Generated_Code/UTIL1.c ****   \param[in] num The 8bit number to add
 837:../Generated_Code/UTIL1.c ****   */
 838:../Generated_Code/UTIL1.c **** void UTIL1_strcatNum8Hex(uint8_t *dst, size_t dstSize, uint8_t num)
 839:../Generated_Code/UTIL1.c **** {
 1660              		.loc 1 839 0
 1661              		.cfi_startproc
 1662 0000 80B5     		push	{r7, lr}
 1663              	.LCFI60:
 1664              		.cfi_def_cfa_offset 8
 1665              		.cfi_offset 7, -8
 1666              		.cfi_offset 14, -4
 1667 0002 86B0     		sub	sp, sp, #24
 1668              	.LCFI61:
 1669              		.cfi_def_cfa_offset 32
 1670 0004 00AF     		add	r7, sp, #0
 1671              	.LCFI62:
 1672              		.cfi_def_cfa_register 7
 1673 0006 F860     		str	r0, [r7, #12]
 1674 0008 B960     		str	r1, [r7, #8]
 1675 000a FB1D     		add	r3, r7, #7
 1676 000c 1A70     		strb	r2, [r3]
 840:../Generated_Code/UTIL1.c ****   unsigned char buf[sizeof("FF")]; /* maximum buffer size we need */
 841:../Generated_Code/UTIL1.c ****   unsigned char hex;
 842:../Generated_Code/UTIL1.c **** 
 843:../Generated_Code/UTIL1.c ****   buf[2] = '\0';
 1677              		.loc 1 843 0
 1678 000e 3B1C     		mov	r3, r7
 1679 0010 1433     		add	r3, r3, #20
 1680 0012 0022     		mov	r2, #0
 1681 0014 9A70     		strb	r2, [r3, #2]
 844:../Generated_Code/UTIL1.c ****   hex = (char)(num & 0x0F);
 1682              		.loc 1 844 0
 1683 0016 3B1C     		mov	r3, r7
 1684 0018 1733     		add	r3, r3, #23
 1685 001a FA1D     		add	r2, r7, #7
 1686 001c 1178     		ldrb	r1, [r2]
 1687 001e 0F22     		mov	r2, #15
 1688 0020 0A40     		and	r2, r1
 1689 0022 1A70     		strb	r2, [r3]
 845:../Generated_Code/UTIL1.c ****   buf[1] = (char)(hex + ((hex <= 9) ? '0' : ('A'-10)));
 1690              		.loc 1 845 0
 1691 0024 3B1C     		mov	r3, r7
 1692 0026 1733     		add	r3, r3, #23
 1693 0028 1B78     		ldrb	r3, [r3]
 1694 002a 092B     		cmp	r3, #9
 1695 002c 01D8     		bhi	.L60
 1696              		.loc 1 845 0 is_stmt 0
 1697 002e 3023     		mov	r3, #48
 1698 0030 00E0     		b	.L61
 1699              	.L60:
 1700              		.loc 1 845 0
 1701 0032 3723     		mov	r3, #55
 1702              	.L61:
 1703              		.loc 1 845 0
 1704 0034 3A1C     		mov	r2, r7
 1705 0036 1732     		add	r2, r2, #23
 1706 0038 1278     		ldrb	r2, [r2]
 1707 003a 9B18     		add	r3, r3, r2
 1708 003c DAB2     		uxtb	r2, r3
 1709 003e 3B1C     		mov	r3, r7
 1710 0040 1433     		add	r3, r3, #20
 1711 0042 5A70     		strb	r2, [r3, #1]
 846:../Generated_Code/UTIL1.c ****   hex = (char)((num>>4) & 0x0F);
 1712              		.loc 1 846 0 is_stmt 1
 1713 0044 3B1C     		mov	r3, r7
 1714 0046 1733     		add	r3, r3, #23
 1715 0048 FA1D     		add	r2, r7, #7
 1716 004a 1278     		ldrb	r2, [r2]
 1717 004c 1209     		lsr	r2, r2, #4
 1718 004e 1A70     		strb	r2, [r3]
 847:../Generated_Code/UTIL1.c ****   buf[0] = (char)(hex + ((hex <= 9) ? '0' : ('A'-10)));
 1719              		.loc 1 847 0
 1720 0050 3B1C     		mov	r3, r7
 1721 0052 1733     		add	r3, r3, #23
 1722 0054 1B78     		ldrb	r3, [r3]
 1723 0056 092B     		cmp	r3, #9
 1724 0058 01D8     		bhi	.L62
 1725              		.loc 1 847 0 is_stmt 0
 1726 005a 3023     		mov	r3, #48
 1727 005c 00E0     		b	.L63
 1728              	.L62:
 1729              		.loc 1 847 0
 1730 005e 3723     		mov	r3, #55
 1731              	.L63:
 1732              		.loc 1 847 0
 1733 0060 3A1C     		mov	r2, r7
 1734 0062 1732     		add	r2, r2, #23
 1735 0064 1278     		ldrb	r2, [r2]
 1736 0066 9B18     		add	r3, r3, r2
 1737 0068 DAB2     		uxtb	r2, r3
 1738 006a 3B1C     		mov	r3, r7
 1739 006c 1433     		add	r3, r3, #20
 1740 006e 1A70     		strb	r2, [r3]
 848:../Generated_Code/UTIL1.c ****   UTIL1_strcat(dst, dstSize, buf);
 1741              		.loc 1 848 0 is_stmt 1
 1742 0070 F968     		ldr	r1, [r7, #12]
 1743 0072 BA68     		ldr	r2, [r7, #8]
 1744 0074 3B1C     		mov	r3, r7
 1745 0076 1433     		add	r3, r3, #20
 1746 0078 081C     		mov	r0, r1
 1747 007a 111C     		mov	r1, r2
 1748 007c 1A1C     		mov	r2, r3
 1749 007e FFF7FEFF 		bl	UTIL1_strcat
 849:../Generated_Code/UTIL1.c **** }
 1750              		.loc 1 849 0
 1751 0082 BD46     		mov	sp, r7
 1752 0084 06B0     		add	sp, sp, #24
 1753              		@ sp needed for prologue
 1754 0086 80BD     		pop	{r7, pc}
 1755              		.cfi_endproc
 1756              	.LFE20:
 1758              		.section	.text.UTIL1_strcatNum16Hex,"ax",%progbits
 1759              		.align	2
 1760              		.global	UTIL1_strcatNum16Hex
 1761              		.code	16
 1762              		.thumb_func
 1764              	UTIL1_strcatNum16Hex:
 1765              	.LFB21:
 850:../Generated_Code/UTIL1.c **** 
 851:../Generated_Code/UTIL1.c **** /*
 852:../Generated_Code/UTIL1.c **** ** ===================================================================
 853:../Generated_Code/UTIL1.c **** **     Method      :  UTIL1_strcatNum16Hex (component Utility)
 854:../Generated_Code/UTIL1.c **** **     Description :
 855:../Generated_Code/UTIL1.c **** **         Appends a 16bit unsigned value to a string buffer as hex
 856:../Generated_Code/UTIL1.c **** **         number (without a 0x prefix).
 857:../Generated_Code/UTIL1.c **** **     Parameters  :
 858:../Generated_Code/UTIL1.c **** **         NAME            - DESCRIPTION
 859:../Generated_Code/UTIL1.c **** **       * dst             - Pointer to destination string
 860:../Generated_Code/UTIL1.c **** **         dstSize         - Size of the destination buffer (in
 861:../Generated_Code/UTIL1.c **** **                           bytes).
 862:../Generated_Code/UTIL1.c **** **         num             - Value to convert.
 863:../Generated_Code/UTIL1.c **** **     Returns     : Nothing
 864:../Generated_Code/UTIL1.c **** ** ===================================================================
 865:../Generated_Code/UTIL1.c **** */
 866:../Generated_Code/UTIL1.c **** /*!
 867:../Generated_Code/UTIL1.c ****   \brief Adds a 16bit number as hex value to a string.
 868:../Generated_Code/UTIL1.c ****   \param[in,out] dst Start of string buffer, where to append the number string
 869:../Generated_Code/UTIL1.c ****   \param[in] dstSize The size of the buffer, including the zero byte
 870:../Generated_Code/UTIL1.c ****   \param[in] num The 16bit number to add
 871:../Generated_Code/UTIL1.c ****   */
 872:../Generated_Code/UTIL1.c **** void UTIL1_strcatNum16Hex(uint8_t *dst, size_t dstSize, uint16_t num)
 873:../Generated_Code/UTIL1.c **** {
 1766              		.loc 1 873 0
 1767              		.cfi_startproc
 1768 0000 80B5     		push	{r7, lr}
 1769              	.LCFI63:
 1770              		.cfi_def_cfa_offset 8
 1771              		.cfi_offset 7, -8
 1772              		.cfi_offset 14, -4
 1773 0002 86B0     		sub	sp, sp, #24
 1774              	.LCFI64:
 1775              		.cfi_def_cfa_offset 32
 1776 0004 00AF     		add	r7, sp, #0
 1777              	.LCFI65:
 1778              		.cfi_def_cfa_register 7
 1779 0006 F860     		str	r0, [r7, #12]
 1780 0008 B960     		str	r1, [r7, #8]
 1781 000a BB1D     		add	r3, r7, #6
 1782 000c 1A80     		strh	r2, [r3]
 874:../Generated_Code/UTIL1.c ****   unsigned char buf[sizeof("FFFF")]; /* maximum buffer size we need */
 875:../Generated_Code/UTIL1.c ****   unsigned char hex;
 876:../Generated_Code/UTIL1.c ****   int8_t i;
 877:../Generated_Code/UTIL1.c **** 
 878:../Generated_Code/UTIL1.c ****   buf[4] = '\0';
 1783              		.loc 1 878 0
 1784 000e 3B1C     		mov	r3, r7
 1785 0010 1033     		add	r3, r3, #16
 1786 0012 0022     		mov	r2, #0
 1787 0014 1A71     		strb	r2, [r3, #4]
 879:../Generated_Code/UTIL1.c ****   i = 3;
 1788              		.loc 1 879 0
 1789 0016 3B1C     		mov	r3, r7
 1790 0018 1733     		add	r3, r3, #23
 1791 001a 0322     		mov	r2, #3
 1792 001c 1A70     		strb	r2, [r3]
 1793              	.L67:
 880:../Generated_Code/UTIL1.c ****   do {
 881:../Generated_Code/UTIL1.c ****     hex = (char)(num & 0x0F);
 1794              		.loc 1 881 0
 1795 001e BB1D     		add	r3, r7, #6
 1796 0020 1B88     		ldrh	r3, [r3]
 1797 0022 D9B2     		uxtb	r1, r3
 1798 0024 3B1C     		mov	r3, r7
 1799 0026 1633     		add	r3, r3, #22
 1800 0028 0F22     		mov	r2, #15
 1801 002a 0A40     		and	r2, r1
 1802 002c 1A70     		strb	r2, [r3]
 882:../Generated_Code/UTIL1.c ****     buf[i] = (char)(hex + ((hex <= 9) ? '0' : ('A'-10)));
 1803              		.loc 1 882 0
 1804 002e 3B1C     		mov	r3, r7
 1805 0030 1733     		add	r3, r3, #23
 1806 0032 0022     		mov	r2, #0
 1807 0034 9A56     		ldrsb	r2, [r3, r2]
 1808 0036 3B1C     		mov	r3, r7
 1809 0038 1633     		add	r3, r3, #22
 1810 003a 1B78     		ldrb	r3, [r3]
 1811 003c 092B     		cmp	r3, #9
 1812 003e 01D8     		bhi	.L65
 1813              		.loc 1 882 0 is_stmt 0
 1814 0040 3023     		mov	r3, #48
 1815 0042 00E0     		b	.L66
 1816              	.L65:
 1817              		.loc 1 882 0
 1818 0044 3723     		mov	r3, #55
 1819              	.L66:
 1820              		.loc 1 882 0
 1821 0046 391C     		mov	r1, r7
 1822 0048 1631     		add	r1, r1, #22
 1823 004a 0978     		ldrb	r1, [r1]
 1824 004c 5B18     		add	r3, r3, r1
 1825 004e D9B2     		uxtb	r1, r3
 1826 0050 3B1C     		mov	r3, r7
 1827 0052 1033     		add	r3, r3, #16
 1828 0054 9954     		strb	r1, [r3, r2]
 883:../Generated_Code/UTIL1.c ****     num >>= 4;                          /* next nibble */
 1829              		.loc 1 883 0 is_stmt 1
 1830 0056 BB1D     		add	r3, r7, #6
 1831 0058 BA1D     		add	r2, r7, #6
 1832 005a 1288     		ldrh	r2, [r2]
 1833 005c 1209     		lsr	r2, r2, #4
 1834 005e 1A80     		strh	r2, [r3]
 884:../Generated_Code/UTIL1.c ****     i--;
 1835              		.loc 1 884 0
 1836 0060 3B1C     		mov	r3, r7
 1837 0062 1733     		add	r3, r3, #23
 1838 0064 3A1C     		mov	r2, r7
 1839 0066 1732     		add	r2, r2, #23
 1840 0068 1278     		ldrb	r2, [r2]
 1841 006a 013A     		sub	r2, r2, #1
 1842 006c 1A70     		strb	r2, [r3]
 885:../Generated_Code/UTIL1.c ****   } while (i>=0);
 1843              		.loc 1 885 0
 1844 006e 3B1C     		mov	r3, r7
 1845 0070 1733     		add	r3, r3, #23
 1846 0072 1B78     		ldrb	r3, [r3]
 1847 0074 7F2B     		cmp	r3, #127
 1848 0076 D2D9     		bls	.L67
 886:../Generated_Code/UTIL1.c ****   UTIL1_strcat(dst, dstSize, buf);
 1849              		.loc 1 886 0
 1850 0078 F968     		ldr	r1, [r7, #12]
 1851 007a BA68     		ldr	r2, [r7, #8]
 1852 007c 3B1C     		mov	r3, r7
 1853 007e 1033     		add	r3, r3, #16
 1854 0080 081C     		mov	r0, r1
 1855 0082 111C     		mov	r1, r2
 1856 0084 1A1C     		mov	r2, r3
 1857 0086 FFF7FEFF 		bl	UTIL1_strcat
 887:../Generated_Code/UTIL1.c **** }
 1858              		.loc 1 887 0
 1859 008a BD46     		mov	sp, r7
 1860 008c 06B0     		add	sp, sp, #24
 1861              		@ sp needed for prologue
 1862 008e 80BD     		pop	{r7, pc}
 1863              		.cfi_endproc
 1864              	.LFE21:
 1866              		.section	.text.UTIL1_strcatNum24Hex,"ax",%progbits
 1867              		.align	2
 1868              		.global	UTIL1_strcatNum24Hex
 1869              		.code	16
 1870              		.thumb_func
 1872              	UTIL1_strcatNum24Hex:
 1873              	.LFB22:
 888:../Generated_Code/UTIL1.c **** 
 889:../Generated_Code/UTIL1.c **** /*
 890:../Generated_Code/UTIL1.c **** ** ===================================================================
 891:../Generated_Code/UTIL1.c **** **     Method      :  UTIL1_strcatNum24Hex (component Utility)
 892:../Generated_Code/UTIL1.c **** **     Description :
 893:../Generated_Code/UTIL1.c **** **         Appends a 32bit unsigned value to a string buffer as hex
 894:../Generated_Code/UTIL1.c **** **         number (without a 0x prefix). Only 24bits are used.
 895:../Generated_Code/UTIL1.c **** **     Parameters  :
 896:../Generated_Code/UTIL1.c **** **         NAME            - DESCRIPTION
 897:../Generated_Code/UTIL1.c **** **       * dst             - Pointer to destination string
 898:../Generated_Code/UTIL1.c **** **         dstSize         - Size of the destination buffer (in
 899:../Generated_Code/UTIL1.c **** **                           bytes).
 900:../Generated_Code/UTIL1.c **** **         num             - Value to convert.
 901:../Generated_Code/UTIL1.c **** **     Returns     : Nothing
 902:../Generated_Code/UTIL1.c **** ** ===================================================================
 903:../Generated_Code/UTIL1.c **** */
 904:../Generated_Code/UTIL1.c **** /*!
 905:../Generated_Code/UTIL1.c ****   \brief Adds a 24bit number as hex value to a string.
 906:../Generated_Code/UTIL1.c ****   \param[in,out] dst Start of string buffer, where to append the number string
 907:../Generated_Code/UTIL1.c ****   \param[in] dstSize The size of the buffer, including the zero byte
 908:../Generated_Code/UTIL1.c ****   \param[in] num The 24bit number to add
 909:../Generated_Code/UTIL1.c ****   */
 910:../Generated_Code/UTIL1.c **** void UTIL1_strcatNum24Hex(uint8_t *dst, size_t dstSize, uint32_t num)
 911:../Generated_Code/UTIL1.c **** {
 1874              		.loc 1 911 0
 1875              		.cfi_startproc
 1876 0000 80B5     		push	{r7, lr}
 1877              	.LCFI66:
 1878              		.cfi_def_cfa_offset 8
 1879              		.cfi_offset 7, -8
 1880              		.cfi_offset 14, -4
 1881 0002 88B0     		sub	sp, sp, #32
 1882              	.LCFI67:
 1883              		.cfi_def_cfa_offset 40
 1884 0004 00AF     		add	r7, sp, #0
 1885              	.LCFI68:
 1886              		.cfi_def_cfa_register 7
 1887 0006 F860     		str	r0, [r7, #12]
 1888 0008 B960     		str	r1, [r7, #8]
 1889 000a 7A60     		str	r2, [r7, #4]
 912:../Generated_Code/UTIL1.c ****   unsigned char buf[sizeof("FFFFFF")]; /* maximum buffer size we need */
 913:../Generated_Code/UTIL1.c ****   unsigned char hex;
 914:../Generated_Code/UTIL1.c ****   int8_t i;
 915:../Generated_Code/UTIL1.c **** 
 916:../Generated_Code/UTIL1.c ****   buf[6] = '\0';
 1890              		.loc 1 916 0
 1891 000c 3B1C     		mov	r3, r7
 1892 000e 1433     		add	r3, r3, #20
 1893 0010 0022     		mov	r2, #0
 1894 0012 9A71     		strb	r2, [r3, #6]
 917:../Generated_Code/UTIL1.c ****   i = 5;
 1895              		.loc 1 917 0
 1896 0014 3B1C     		mov	r3, r7
 1897 0016 1F33     		add	r3, r3, #31
 1898 0018 0522     		mov	r2, #5
 1899 001a 1A70     		strb	r2, [r3]
 1900              	.L71:
 918:../Generated_Code/UTIL1.c ****   do {
 919:../Generated_Code/UTIL1.c ****     hex = (char)(num & 0x0F);
 1901              		.loc 1 919 0
 1902 001c 7B68     		ldr	r3, [r7, #4]
 1903 001e D9B2     		uxtb	r1, r3
 1904 0020 3B1C     		mov	r3, r7
 1905 0022 1E33     		add	r3, r3, #30
 1906 0024 0F22     		mov	r2, #15
 1907 0026 0A40     		and	r2, r1
 1908 0028 1A70     		strb	r2, [r3]
 920:../Generated_Code/UTIL1.c ****     buf[i] = (char)(hex + ((hex <= 9) ? '0' : ('A'-10)));
 1909              		.loc 1 920 0
 1910 002a 3B1C     		mov	r3, r7
 1911 002c 1F33     		add	r3, r3, #31
 1912 002e 0022     		mov	r2, #0
 1913 0030 9A56     		ldrsb	r2, [r3, r2]
 1914 0032 3B1C     		mov	r3, r7
 1915 0034 1E33     		add	r3, r3, #30
 1916 0036 1B78     		ldrb	r3, [r3]
 1917 0038 092B     		cmp	r3, #9
 1918 003a 01D8     		bhi	.L69
 1919              		.loc 1 920 0 is_stmt 0
 1920 003c 3023     		mov	r3, #48
 1921 003e 00E0     		b	.L70
 1922              	.L69:
 1923              		.loc 1 920 0
 1924 0040 3723     		mov	r3, #55
 1925              	.L70:
 1926              		.loc 1 920 0
 1927 0042 391C     		mov	r1, r7
 1928 0044 1E31     		add	r1, r1, #30
 1929 0046 0978     		ldrb	r1, [r1]
 1930 0048 5B18     		add	r3, r3, r1
 1931 004a D9B2     		uxtb	r1, r3
 1932 004c 3B1C     		mov	r3, r7
 1933 004e 1433     		add	r3, r3, #20
 1934 0050 9954     		strb	r1, [r3, r2]
 921:../Generated_Code/UTIL1.c ****     num >>= 4;                          /* next nibble */
 1935              		.loc 1 921 0 is_stmt 1
 1936 0052 7B68     		ldr	r3, [r7, #4]
 1937 0054 1B09     		lsr	r3, r3, #4
 1938 0056 7B60     		str	r3, [r7, #4]
 922:../Generated_Code/UTIL1.c ****     i--;
 1939              		.loc 1 922 0
 1940 0058 3B1C     		mov	r3, r7
 1941 005a 1F33     		add	r3, r3, #31
 1942 005c 3A1C     		mov	r2, r7
 1943 005e 1F32     		add	r2, r2, #31
 1944 0060 1278     		ldrb	r2, [r2]
 1945 0062 013A     		sub	r2, r2, #1
 1946 0064 1A70     		strb	r2, [r3]
 923:../Generated_Code/UTIL1.c ****   } while (i>=0);
 1947              		.loc 1 923 0
 1948 0066 3B1C     		mov	r3, r7
 1949 0068 1F33     		add	r3, r3, #31
 1950 006a 1B78     		ldrb	r3, [r3]
 1951 006c 7F2B     		cmp	r3, #127
 1952 006e D5D9     		bls	.L71
 924:../Generated_Code/UTIL1.c ****   UTIL1_strcat(dst, dstSize, buf);
 1953              		.loc 1 924 0
 1954 0070 F968     		ldr	r1, [r7, #12]
 1955 0072 BA68     		ldr	r2, [r7, #8]
 1956 0074 3B1C     		mov	r3, r7
 1957 0076 1433     		add	r3, r3, #20
 1958 0078 081C     		mov	r0, r1
 1959 007a 111C     		mov	r1, r2
 1960 007c 1A1C     		mov	r2, r3
 1961 007e FFF7FEFF 		bl	UTIL1_strcat
 925:../Generated_Code/UTIL1.c **** }
 1962              		.loc 1 925 0
 1963 0082 BD46     		mov	sp, r7
 1964 0084 08B0     		add	sp, sp, #32
 1965              		@ sp needed for prologue
 1966 0086 80BD     		pop	{r7, pc}
 1967              		.cfi_endproc
 1968              	.LFE22:
 1970              		.section	.text.UTIL1_strcatNum32Hex,"ax",%progbits
 1971              		.align	2
 1972              		.global	UTIL1_strcatNum32Hex
 1973              		.code	16
 1974              		.thumb_func
 1976              	UTIL1_strcatNum32Hex:
 1977              	.LFB23:
 926:../Generated_Code/UTIL1.c **** 
 927:../Generated_Code/UTIL1.c **** /*
 928:../Generated_Code/UTIL1.c **** ** ===================================================================
 929:../Generated_Code/UTIL1.c **** **     Method      :  UTIL1_strcatNum32Hex (component Utility)
 930:../Generated_Code/UTIL1.c **** **     Description :
 931:../Generated_Code/UTIL1.c **** **         Appends a 16bit unsigned value to a string buffer as hex
 932:../Generated_Code/UTIL1.c **** **         number (without a 0x prefix).
 933:../Generated_Code/UTIL1.c **** **     Parameters  :
 934:../Generated_Code/UTIL1.c **** **         NAME            - DESCRIPTION
 935:../Generated_Code/UTIL1.c **** **       * dst             - Pointer to destination string
 936:../Generated_Code/UTIL1.c **** **         dstSize         - Size of the destination buffer (in
 937:../Generated_Code/UTIL1.c **** **                           bytes).
 938:../Generated_Code/UTIL1.c **** **         num             - Value to convert.
 939:../Generated_Code/UTIL1.c **** **     Returns     : Nothing
 940:../Generated_Code/UTIL1.c **** ** ===================================================================
 941:../Generated_Code/UTIL1.c **** */
 942:../Generated_Code/UTIL1.c **** /*!
 943:../Generated_Code/UTIL1.c ****   \brief Adds a 32bit number as hex value to a string.
 944:../Generated_Code/UTIL1.c ****   \param[in,out] dst Start of string buffer, where to append the number string
 945:../Generated_Code/UTIL1.c ****   \param[in] dstSize The size of the buffer, including the zero byte
 946:../Generated_Code/UTIL1.c ****   \param[in] num The 32bit number to add
 947:../Generated_Code/UTIL1.c ****   */
 948:../Generated_Code/UTIL1.c **** void UTIL1_strcatNum32Hex(uint8_t *dst, size_t dstSize, uint32_t num)
 949:../Generated_Code/UTIL1.c **** {
 1978              		.loc 1 949 0
 1979              		.cfi_startproc
 1980 0000 80B5     		push	{r7, lr}
 1981              	.LCFI69:
 1982              		.cfi_def_cfa_offset 8
 1983              		.cfi_offset 7, -8
 1984              		.cfi_offset 14, -4
 1985 0002 88B0     		sub	sp, sp, #32
 1986              	.LCFI70:
 1987              		.cfi_def_cfa_offset 40
 1988 0004 00AF     		add	r7, sp, #0
 1989              	.LCFI71:
 1990              		.cfi_def_cfa_register 7
 1991 0006 F860     		str	r0, [r7, #12]
 1992 0008 B960     		str	r1, [r7, #8]
 1993 000a 7A60     		str	r2, [r7, #4]
 950:../Generated_Code/UTIL1.c ****   unsigned char buf[sizeof("FFFFFFFF")]; /* maximum buffer size we need */
 951:../Generated_Code/UTIL1.c ****   unsigned char hex;
 952:../Generated_Code/UTIL1.c ****   int8_t i;
 953:../Generated_Code/UTIL1.c **** 
 954:../Generated_Code/UTIL1.c ****   buf[8] = '\0';
 1994              		.loc 1 954 0
 1995 000c 3B1C     		mov	r3, r7
 1996 000e 1433     		add	r3, r3, #20
 1997 0010 0022     		mov	r2, #0
 1998 0012 1A72     		strb	r2, [r3, #8]
 955:../Generated_Code/UTIL1.c ****   i = 7;
 1999              		.loc 1 955 0
 2000 0014 3B1C     		mov	r3, r7
 2001 0016 1F33     		add	r3, r3, #31
 2002 0018 0722     		mov	r2, #7
 2003 001a 1A70     		strb	r2, [r3]
 2004              	.L75:
 956:../Generated_Code/UTIL1.c ****   do {
 957:../Generated_Code/UTIL1.c ****     hex = (char)(num & 0x0F);
 2005              		.loc 1 957 0
 2006 001c 7B68     		ldr	r3, [r7, #4]
 2007 001e D9B2     		uxtb	r1, r3
 2008 0020 3B1C     		mov	r3, r7
 2009 0022 1E33     		add	r3, r3, #30
 2010 0024 0F22     		mov	r2, #15
 2011 0026 0A40     		and	r2, r1
 2012 0028 1A70     		strb	r2, [r3]
 958:../Generated_Code/UTIL1.c ****     buf[i] = (char)(hex + ((hex <= 9) ? '0' : ('A'-10)));
 2013              		.loc 1 958 0
 2014 002a 3B1C     		mov	r3, r7
 2015 002c 1F33     		add	r3, r3, #31
 2016 002e 0022     		mov	r2, #0
 2017 0030 9A56     		ldrsb	r2, [r3, r2]
 2018 0032 3B1C     		mov	r3, r7
 2019 0034 1E33     		add	r3, r3, #30
 2020 0036 1B78     		ldrb	r3, [r3]
 2021 0038 092B     		cmp	r3, #9
 2022 003a 01D8     		bhi	.L73
 2023              		.loc 1 958 0 is_stmt 0
 2024 003c 3023     		mov	r3, #48
 2025 003e 00E0     		b	.L74
 2026              	.L73:
 2027              		.loc 1 958 0
 2028 0040 3723     		mov	r3, #55
 2029              	.L74:
 2030              		.loc 1 958 0
 2031 0042 391C     		mov	r1, r7
 2032 0044 1E31     		add	r1, r1, #30
 2033 0046 0978     		ldrb	r1, [r1]
 2034 0048 5B18     		add	r3, r3, r1
 2035 004a D9B2     		uxtb	r1, r3
 2036 004c 3B1C     		mov	r3, r7
 2037 004e 1433     		add	r3, r3, #20
 2038 0050 9954     		strb	r1, [r3, r2]
 959:../Generated_Code/UTIL1.c ****     num >>= 4;                          /* next nibble */
 2039              		.loc 1 959 0 is_stmt 1
 2040 0052 7B68     		ldr	r3, [r7, #4]
 2041 0054 1B09     		lsr	r3, r3, #4
 2042 0056 7B60     		str	r3, [r7, #4]
 960:../Generated_Code/UTIL1.c ****     i--;
 2043              		.loc 1 960 0
 2044 0058 3B1C     		mov	r3, r7
 2045 005a 1F33     		add	r3, r3, #31
 2046 005c 3A1C     		mov	r2, r7
 2047 005e 1F32     		add	r2, r2, #31
 2048 0060 1278     		ldrb	r2, [r2]
 2049 0062 013A     		sub	r2, r2, #1
 2050 0064 1A70     		strb	r2, [r3]
 961:../Generated_Code/UTIL1.c ****   } while (i>=0);
 2051              		.loc 1 961 0
 2052 0066 3B1C     		mov	r3, r7
 2053 0068 1F33     		add	r3, r3, #31
 2054 006a 1B78     		ldrb	r3, [r3]
 2055 006c 7F2B     		cmp	r3, #127
 2056 006e D5D9     		bls	.L75
 962:../Generated_Code/UTIL1.c ****   UTIL1_strcat(dst, dstSize, buf);
 2057              		.loc 1 962 0
 2058 0070 F968     		ldr	r1, [r7, #12]
 2059 0072 BA68     		ldr	r2, [r7, #8]
 2060 0074 3B1C     		mov	r3, r7
 2061 0076 1433     		add	r3, r3, #20
 2062 0078 081C     		mov	r0, r1
 2063 007a 111C     		mov	r1, r2
 2064 007c 1A1C     		mov	r2, r3
 2065 007e FFF7FEFF 		bl	UTIL1_strcat
 963:../Generated_Code/UTIL1.c **** }
 2066              		.loc 1 963 0
 2067 0082 BD46     		mov	sp, r7
 2068 0084 08B0     		add	sp, sp, #32
 2069              		@ sp needed for prologue
 2070 0086 80BD     		pop	{r7, pc}
 2071              		.cfi_endproc
 2072              	.LFE23:
 2074              		.section	.text.UTIL1_strcatNum32s,"ax",%progbits
 2075              		.align	2
 2076              		.global	UTIL1_strcatNum32s
 2077              		.code	16
 2078              		.thumb_func
 2080              	UTIL1_strcatNum32s:
 2081              	.LFB24:
 964:../Generated_Code/UTIL1.c **** 
 965:../Generated_Code/UTIL1.c **** /*
 966:../Generated_Code/UTIL1.c **** ** ===================================================================
 967:../Generated_Code/UTIL1.c **** **     Method      :  UTIL1_strcatNum32s (component Utility)
 968:../Generated_Code/UTIL1.c **** **     Description :
 969:../Generated_Code/UTIL1.c **** **         Appends a 32bit signed value to a string buffer.
 970:../Generated_Code/UTIL1.c **** **     Parameters  :
 971:../Generated_Code/UTIL1.c **** **         NAME            - DESCRIPTION
 972:../Generated_Code/UTIL1.c **** **       * dst             - Pointer to destination string
 973:../Generated_Code/UTIL1.c **** **         dstSize         - Size of the destination buffer (in
 974:../Generated_Code/UTIL1.c **** **                           bytes).
 975:../Generated_Code/UTIL1.c **** **         val             - Value to convert.
 976:../Generated_Code/UTIL1.c **** **     Returns     : Nothing
 977:../Generated_Code/UTIL1.c **** ** ===================================================================
 978:../Generated_Code/UTIL1.c **** */
 979:../Generated_Code/UTIL1.c **** /*!
 980:../Generated_Code/UTIL1.c ****   \brief appends a 32bit (long) number to a string. Always terminates the result string.
 981:../Generated_Code/UTIL1.c ****      Note: count is the size of dst INCLUDING zero byte.
 982:../Generated_Code/UTIL1.c ****      Precondition: src, dst != NULL
 983:../Generated_Code/UTIL1.c ****   \param[in,out] dst Start of string buffer, where to append the number string
 984:../Generated_Code/UTIL1.c ****   \param[in] dstSize The size of the buffer, including the zero byte
 985:../Generated_Code/UTIL1.c ****   \param[in] val The 32bit number to add
 986:../Generated_Code/UTIL1.c ****   */
 987:../Generated_Code/UTIL1.c **** void UTIL1_strcatNum32s(uint8_t *dst, size_t dstSize, int32_t val)
 988:../Generated_Code/UTIL1.c **** {
 2082              		.loc 1 988 0
 2083              		.cfi_startproc
 2084 0000 80B5     		push	{r7, lr}
 2085              	.LCFI72:
 2086              		.cfi_def_cfa_offset 8
 2087              		.cfi_offset 7, -8
 2088              		.cfi_offset 14, -4
 2089 0002 88B0     		sub	sp, sp, #32
 2090              	.LCFI73:
 2091              		.cfi_def_cfa_offset 40
 2092 0004 00AF     		add	r7, sp, #0
 2093              	.LCFI74:
 2094              		.cfi_def_cfa_register 7
 2095 0006 F860     		str	r0, [r7, #12]
 2096 0008 B960     		str	r1, [r7, #8]
 2097 000a 7A60     		str	r2, [r7, #4]
 989:../Generated_Code/UTIL1.c ****   unsigned char buf[sizeof("-4294967295")]; /* maximum buffer size we need */
 990:../Generated_Code/UTIL1.c **** 
 991:../Generated_Code/UTIL1.c ****   UTIL1_Num32sToStr(buf, sizeof(buf), val);
 2098              		.loc 1 991 0
 2099 000c 3A1C     		mov	r2, r7
 2100 000e 1432     		add	r2, r2, #20
 2101 0010 7B68     		ldr	r3, [r7, #4]
 2102 0012 101C     		mov	r0, r2
 2103 0014 0C21     		mov	r1, #12
 2104 0016 1A1C     		mov	r2, r3
 2105 0018 FFF7FEFF 		bl	UTIL1_Num32sToStr
 992:../Generated_Code/UTIL1.c ****   UTIL1_strcat(dst, dstSize, buf);
 2106              		.loc 1 992 0
 2107 001c F968     		ldr	r1, [r7, #12]
 2108 001e BA68     		ldr	r2, [r7, #8]
 2109 0020 3B1C     		mov	r3, r7
 2110 0022 1433     		add	r3, r3, #20
 2111 0024 081C     		mov	r0, r1
 2112 0026 111C     		mov	r1, r2
 2113 0028 1A1C     		mov	r2, r3
 2114 002a FFF7FEFF 		bl	UTIL1_strcat
 993:../Generated_Code/UTIL1.c **** }
 2115              		.loc 1 993 0
 2116 002e BD46     		mov	sp, r7
 2117 0030 08B0     		add	sp, sp, #32
 2118              		@ sp needed for prologue
 2119 0032 80BD     		pop	{r7, pc}
 2120              		.cfi_endproc
 2121              	.LFE24:
 2123              		.section	.text.UTIL1_strcatNum32u,"ax",%progbits
 2124              		.align	2
 2125              		.global	UTIL1_strcatNum32u
 2126              		.code	16
 2127              		.thumb_func
 2129              	UTIL1_strcatNum32u:
 2130              	.LFB25:
 994:../Generated_Code/UTIL1.c **** 
 995:../Generated_Code/UTIL1.c **** /*
 996:../Generated_Code/UTIL1.c **** ** ===================================================================
 997:../Generated_Code/UTIL1.c **** **     Method      :  UTIL1_strcatNum32u (component Utility)
 998:../Generated_Code/UTIL1.c **** **     Description :
 999:../Generated_Code/UTIL1.c **** **         Appends a 32bit signed value to a string buffer.
1000:../Generated_Code/UTIL1.c **** **     Parameters  :
1001:../Generated_Code/UTIL1.c **** **         NAME            - DESCRIPTION
1002:../Generated_Code/UTIL1.c **** **       * dst             - Pointer to destination string
1003:../Generated_Code/UTIL1.c **** **         dstSize         - Size of the destination buffer (in
1004:../Generated_Code/UTIL1.c **** **                           bytes).
1005:../Generated_Code/UTIL1.c **** **         val             - Value to convert.
1006:../Generated_Code/UTIL1.c **** **     Returns     : Nothing
1007:../Generated_Code/UTIL1.c **** ** ===================================================================
1008:../Generated_Code/UTIL1.c **** */
1009:../Generated_Code/UTIL1.c **** /*!
1010:../Generated_Code/UTIL1.c ****   \brief appends a 32bit (unsigned long) number to a string. Always terminates the result string.
1011:../Generated_Code/UTIL1.c ****      Note: count is the size of dst INCLUDING zero byte.
1012:../Generated_Code/UTIL1.c ****      Precondition: src, dst != NULL
1013:../Generated_Code/UTIL1.c ****   \param[in,out] dst Start of string buffer, where to append the number string
1014:../Generated_Code/UTIL1.c ****   \param[in] dstSize The size of the buffer, including the zero byte
1015:../Generated_Code/UTIL1.c ****   \param[in] val The 32bit unsigned number to add
1016:../Generated_Code/UTIL1.c ****   */
1017:../Generated_Code/UTIL1.c **** void UTIL1_strcatNum32u(uint8_t *dst, size_t dstSize, uint32_t val)
1018:../Generated_Code/UTIL1.c **** {
 2131              		.loc 1 1018 0
 2132              		.cfi_startproc
 2133 0000 80B5     		push	{r7, lr}
 2134              	.LCFI75:
 2135              		.cfi_def_cfa_offset 8
 2136              		.cfi_offset 7, -8
 2137              		.cfi_offset 14, -4
 2138 0002 88B0     		sub	sp, sp, #32
 2139              	.LCFI76:
 2140              		.cfi_def_cfa_offset 40
 2141 0004 00AF     		add	r7, sp, #0
 2142              	.LCFI77:
 2143              		.cfi_def_cfa_register 7
 2144 0006 F860     		str	r0, [r7, #12]
 2145 0008 B960     		str	r1, [r7, #8]
 2146 000a 7A60     		str	r2, [r7, #4]
1019:../Generated_Code/UTIL1.c ****   unsigned char buf[sizeof("4294967295")]; /* maximum buffer size we need */
1020:../Generated_Code/UTIL1.c **** 
1021:../Generated_Code/UTIL1.c ****   UTIL1_Num32uToStr(buf, sizeof(buf), val);
 2147              		.loc 1 1021 0
 2148 000c 3A1C     		mov	r2, r7
 2149 000e 1432     		add	r2, r2, #20
 2150 0010 7B68     		ldr	r3, [r7, #4]
 2151 0012 101C     		mov	r0, r2
 2152 0014 0B21     		mov	r1, #11
 2153 0016 1A1C     		mov	r2, r3
 2154 0018 FFF7FEFF 		bl	UTIL1_Num32uToStr
1022:../Generated_Code/UTIL1.c ****   UTIL1_strcat(dst, dstSize, buf);
 2155              		.loc 1 1022 0
 2156 001c F968     		ldr	r1, [r7, #12]
 2157 001e BA68     		ldr	r2, [r7, #8]
 2158 0020 3B1C     		mov	r3, r7
 2159 0022 1433     		add	r3, r3, #20
 2160 0024 081C     		mov	r0, r1
 2161 0026 111C     		mov	r1, r2
 2162 0028 1A1C     		mov	r2, r3
 2163 002a FFF7FEFF 		bl	UTIL1_strcat
1023:../Generated_Code/UTIL1.c **** }
 2164              		.loc 1 1023 0
 2165 002e BD46     		mov	sp, r7
 2166 0030 08B0     		add	sp, sp, #32
 2167              		@ sp needed for prologue
 2168 0032 80BD     		pop	{r7, pc}
 2169              		.cfi_endproc
 2170              	.LFE25:
 2172              		.section	.rodata
 2173 0007 00       		.align	2
 2174              	.LC2:
 2175 0008 2D323134 		.ascii	"-2147483648\000"
 2175      37343833 
 2175      36343800 
 2176              		.section	.text.UTIL1_Num32sToStr,"ax",%progbits
 2177              		.align	2
 2178              		.global	UTIL1_Num32sToStr
 2179              		.code	16
 2180              		.thumb_func
 2182              	UTIL1_Num32sToStr:
 2183              	.LFB26:
1024:../Generated_Code/UTIL1.c **** 
1025:../Generated_Code/UTIL1.c **** /*
1026:../Generated_Code/UTIL1.c **** ** ===================================================================
1027:../Generated_Code/UTIL1.c **** **     Method      :  UTIL1_Num32sToStr (component Utility)
1028:../Generated_Code/UTIL1.c **** **     Description :
1029:../Generated_Code/UTIL1.c **** **         Converts a signed 32bit value into a string.
1030:../Generated_Code/UTIL1.c **** **     Parameters  :
1031:../Generated_Code/UTIL1.c **** **         NAME            - DESCRIPTION
1032:../Generated_Code/UTIL1.c **** **       * dst             - Pointer to destination string
1033:../Generated_Code/UTIL1.c **** **         dstSize         - Size of the destination buffer (in
1034:../Generated_Code/UTIL1.c **** **                           bytes).
1035:../Generated_Code/UTIL1.c **** **         val             - Value to be converted.
1036:../Generated_Code/UTIL1.c **** **     Returns     : Nothing
1037:../Generated_Code/UTIL1.c **** ** ===================================================================
1038:../Generated_Code/UTIL1.c **** */
1039:../Generated_Code/UTIL1.c **** /*!
1040:../Generated_Code/UTIL1.c ****   \brief Converts a 32bit number to a string.
1041:../Generated_Code/UTIL1.c ****   \param[in,out] dst String buffer to store the number.
1042:../Generated_Code/UTIL1.c ****   \param[in] dstSize Size of the destination buffer in uint8_ts.
1043:../Generated_Code/UTIL1.c ****   \param[in] val 32bit signed number to convert.
1044:../Generated_Code/UTIL1.c ****  */
1045:../Generated_Code/UTIL1.c **** void UTIL1_Num32sToStr(uint8_t *dst, size_t dstSize, int32_t val)
1046:../Generated_Code/UTIL1.c **** {
 2184              		.loc 1 1046 0
 2185              		.cfi_startproc
 2186 0000 90B5     		push	{r4, r7, lr}
 2187              	.LCFI78:
 2188              		.cfi_def_cfa_offset 12
 2189              		.cfi_offset 4, -12
 2190              		.cfi_offset 7, -8
 2191              		.cfi_offset 14, -4
 2192 0002 89B0     		sub	sp, sp, #36
 2193              	.LCFI79:
 2194              		.cfi_def_cfa_offset 48
 2195 0004 00AF     		add	r7, sp, #0
 2196              	.LCFI80:
 2197              		.cfi_def_cfa_register 7
 2198 0006 F860     		str	r0, [r7, #12]
 2199 0008 B960     		str	r1, [r7, #8]
 2200 000a 7A60     		str	r2, [r7, #4]
1047:../Generated_Code/UTIL1.c ****   unsigned char *ptr = ((unsigned char *)dst);
 2201              		.loc 1 1047 0
 2202 000c FB68     		ldr	r3, [r7, #12]
 2203 000e BB61     		str	r3, [r7, #24]
1048:../Generated_Code/UTIL1.c ****   unsigned char i=0, j;
 2204              		.loc 1 1048 0
 2205 0010 3B1C     		mov	r3, r7
 2206 0012 1F33     		add	r3, r3, #31
 2207 0014 0022     		mov	r2, #0
 2208 0016 1A70     		strb	r2, [r3]
1049:../Generated_Code/UTIL1.c ****   unsigned char tmp;
1050:../Generated_Code/UTIL1.c ****   unsigned char sign = (unsigned char)(val < 0);
 2209              		.loc 1 1050 0
 2210 0018 7B68     		ldr	r3, [r7, #4]
 2211 001a DB0F     		lsr	r3, r3, #31
 2212 001c DAB2     		uxtb	r2, r3
 2213 001e 3B1C     		mov	r3, r7
 2214 0020 1733     		add	r3, r3, #23
 2215 0022 1A70     		strb	r2, [r3]
1051:../Generated_Code/UTIL1.c **** 
1052:../Generated_Code/UTIL1.c ****   if (val==(int32_t)(0x80000000)) { /* special case 0x80000000/-2147483648: prevent overflow below.
 2216              		.loc 1 1052 0
 2217 0024 7A68     		ldr	r2, [r7, #4]
 2218 0026 8023     		mov	r3, #128
 2219 0028 1B06     		lsl	r3, r3, #24
 2220 002a 9A42     		cmp	r2, r3
 2221 002c 08D1     		bne	.L79
1053:../Generated_Code/UTIL1.c ****     UTIL1_strcpy(dst, dstSize, (unsigned char*)"-2147483648");
 2222              		.loc 1 1053 0
 2223 002e F968     		ldr	r1, [r7, #12]
 2224 0030 BA68     		ldr	r2, [r7, #8]
 2225 0032 574B     		ldr	r3, .L89
 2226 0034 081C     		mov	r0, r1
 2227 0036 111C     		mov	r1, r2
 2228 0038 1A1C     		mov	r2, r3
 2229 003a FFF7FEFF 		bl	UTIL1_strcpy
1054:../Generated_Code/UTIL1.c ****     return;
 2230              		.loc 1 1054 0
 2231 003e A3E0     		b	.L78
 2232              	.L79:
1055:../Generated_Code/UTIL1.c ****   }
1056:../Generated_Code/UTIL1.c ****   dstSize--; /* for zero byte */
 2233              		.loc 1 1056 0
 2234 0040 BB68     		ldr	r3, [r7, #8]
 2235 0042 013B     		sub	r3, r3, #1
 2236 0044 BB60     		str	r3, [r7, #8]
1057:../Generated_Code/UTIL1.c ****   if (sign) {
 2237              		.loc 1 1057 0
 2238 0046 3B1C     		mov	r3, r7
 2239 0048 1733     		add	r3, r3, #23
 2240 004a 1B78     		ldrb	r3, [r3]
 2241 004c 002B     		cmp	r3, #0
 2242 004e 02D0     		beq	.L81
1058:../Generated_Code/UTIL1.c ****     val = -val;
 2243              		.loc 1 1058 0
 2244 0050 7B68     		ldr	r3, [r7, #4]
 2245 0052 5B42     		neg	r3, r3
 2246 0054 7B60     		str	r3, [r7, #4]
 2247              	.L81:
1059:../Generated_Code/UTIL1.c ****   }
1060:../Generated_Code/UTIL1.c ****   if (val == 0 && dstSize > 0){
 2248              		.loc 1 1060 0
 2249 0056 7B68     		ldr	r3, [r7, #4]
 2250 0058 002B     		cmp	r3, #0
 2251 005a 34D1     		bne	.L83
 2252              		.loc 1 1060 0 is_stmt 0
 2253 005c BB68     		ldr	r3, [r7, #8]
 2254 005e 002B     		cmp	r3, #0
 2255 0060 31D0     		beq	.L83
1061:../Generated_Code/UTIL1.c ****     ptr[i++] = '0';
 2256              		.loc 1 1061 0 is_stmt 1
 2257 0062 3B1C     		mov	r3, r7
 2258 0064 1F33     		add	r3, r3, #31
 2259 0066 1B78     		ldrb	r3, [r3]
 2260 0068 BA69     		ldr	r2, [r7, #24]
 2261 006a D318     		add	r3, r2, r3
 2262 006c 3022     		mov	r2, #48
 2263 006e 1A70     		strb	r2, [r3]
 2264 0070 3B1C     		mov	r3, r7
 2265 0072 1F33     		add	r3, r3, #31
 2266 0074 3A1C     		mov	r2, r7
 2267 0076 1F32     		add	r2, r2, #31
 2268 0078 1278     		ldrb	r2, [r2]
 2269 007a 0132     		add	r2, r2, #1
 2270 007c 1A70     		strb	r2, [r3]
1062:../Generated_Code/UTIL1.c ****     dstSize--;
 2271              		.loc 1 1062 0
 2272 007e BB68     		ldr	r3, [r7, #8]
 2273 0080 013B     		sub	r3, r3, #1
 2274 0082 BB60     		str	r3, [r7, #8]
1063:../Generated_Code/UTIL1.c ****   }
1064:../Generated_Code/UTIL1.c ****   while (val > 0 && dstSize > 0) {
 2275              		.loc 1 1064 0
 2276 0084 1FE0     		b	.L83
 2277              	.L85:
1065:../Generated_Code/UTIL1.c ****     ptr[i++] = (unsigned char)((val % 10) + '0');
 2278              		.loc 1 1065 0
 2279 0086 3B1C     		mov	r3, r7
 2280 0088 1F33     		add	r3, r3, #31
 2281 008a 1B78     		ldrb	r3, [r3]
 2282 008c BA69     		ldr	r2, [r7, #24]
 2283 008e D418     		add	r4, r2, r3
 2284 0090 7B68     		ldr	r3, [r7, #4]
 2285 0092 181C     		mov	r0, r3
 2286 0094 0A21     		mov	r1, #10
 2287 0096 FFF7FEFF 		bl	__aeabi_idivmod
 2288 009a 0B1C     		mov	r3, r1
 2289 009c DBB2     		uxtb	r3, r3
 2290 009e 3033     		add	r3, r3, #48
 2291 00a0 DBB2     		uxtb	r3, r3
 2292 00a2 2370     		strb	r3, [r4]
 2293 00a4 3B1C     		mov	r3, r7
 2294 00a6 1F33     		add	r3, r3, #31
 2295 00a8 3A1C     		mov	r2, r7
 2296 00aa 1F32     		add	r2, r2, #31
 2297 00ac 1278     		ldrb	r2, [r2]
 2298 00ae 0132     		add	r2, r2, #1
 2299 00b0 1A70     		strb	r2, [r3]
1066:../Generated_Code/UTIL1.c ****     dstSize--;
 2300              		.loc 1 1066 0
 2301 00b2 BB68     		ldr	r3, [r7, #8]
 2302 00b4 013B     		sub	r3, r3, #1
 2303 00b6 BB60     		str	r3, [r7, #8]
1067:../Generated_Code/UTIL1.c ****     val /= 10;
 2304              		.loc 1 1067 0
 2305 00b8 7B68     		ldr	r3, [r7, #4]
 2306 00ba 181C     		mov	r0, r3
 2307 00bc 0A21     		mov	r1, #10
 2308 00be FFF7FEFF 		bl	__aeabi_idiv
 2309 00c2 031C     		mov	r3, r0
 2310 00c4 7B60     		str	r3, [r7, #4]
 2311              	.L83:
1064:../Generated_Code/UTIL1.c ****   while (val > 0 && dstSize > 0) {
 2312              		.loc 1 1064 0
 2313 00c6 7B68     		ldr	r3, [r7, #4]
 2314 00c8 002B     		cmp	r3, #0
 2315 00ca 02DD     		ble	.L84
1064:../Generated_Code/UTIL1.c ****   while (val > 0 && dstSize > 0) {
 2316              		.loc 1 1064 0 is_stmt 0
 2317 00cc BB68     		ldr	r3, [r7, #8]
 2318 00ce 002B     		cmp	r3, #0
 2319 00d0 D9D1     		bne	.L85
 2320              	.L84:
1068:../Generated_Code/UTIL1.c ****   }
1069:../Generated_Code/UTIL1.c ****   if (sign && dstSize > 0){
 2321              		.loc 1 1069 0 is_stmt 1
 2322 00d2 3B1C     		mov	r3, r7
 2323 00d4 1733     		add	r3, r3, #23
 2324 00d6 1B78     		ldrb	r3, [r3]
 2325 00d8 002B     		cmp	r3, #0
 2326 00da 10D0     		beq	.L86
 2327              		.loc 1 1069 0 is_stmt 0
 2328 00dc BB68     		ldr	r3, [r7, #8]
 2329 00de 002B     		cmp	r3, #0
 2330 00e0 0DD0     		beq	.L86
1070:../Generated_Code/UTIL1.c ****     ptr[i++] = '-';
 2331              		.loc 1 1070 0 is_stmt 1
 2332 00e2 3B1C     		mov	r3, r7
 2333 00e4 1F33     		add	r3, r3, #31
 2334 00e6 1B78     		ldrb	r3, [r3]
 2335 00e8 BA69     		ldr	r2, [r7, #24]
 2336 00ea D318     		add	r3, r2, r3
 2337 00ec 2D22     		mov	r2, #45
 2338 00ee 1A70     		strb	r2, [r3]
 2339 00f0 3B1C     		mov	r3, r7
 2340 00f2 1F33     		add	r3, r3, #31
 2341 00f4 3A1C     		mov	r2, r7
 2342 00f6 1F32     		add	r2, r2, #31
 2343 00f8 1278     		ldrb	r2, [r2]
 2344 00fa 0132     		add	r2, r2, #1
 2345 00fc 1A70     		strb	r2, [r3]
 2346              	.L86:
1071:../Generated_Code/UTIL1.c ****   }
1072:../Generated_Code/UTIL1.c ****   for(j=0; j<(i/2); j++) { /* swap buffer */
 2347              		.loc 1 1072 0
 2348 00fe 3B1C     		mov	r3, r7
 2349 0100 1E33     		add	r3, r3, #30
 2350 0102 0022     		mov	r2, #0
 2351 0104 1A70     		strb	r2, [r3]
 2352 0106 2EE0     		b	.L87
 2353              	.L88:
1073:../Generated_Code/UTIL1.c ****     tmp = ptr[j];
 2354              		.loc 1 1073 0
 2355 0108 3B1C     		mov	r3, r7
 2356 010a 1E33     		add	r3, r3, #30
 2357 010c 1B78     		ldrb	r3, [r3]
 2358 010e BA69     		ldr	r2, [r7, #24]
 2359 0110 D218     		add	r2, r2, r3
 2360 0112 3B1C     		mov	r3, r7
 2361 0114 1633     		add	r3, r3, #22
 2362 0116 1278     		ldrb	r2, [r2]
 2363 0118 1A70     		strb	r2, [r3]
1074:../Generated_Code/UTIL1.c ****     ptr[j] = ptr[(i-j)-1];
 2364              		.loc 1 1074 0
 2365 011a 3B1C     		mov	r3, r7
 2366 011c 1E33     		add	r3, r3, #30
 2367 011e 1B78     		ldrb	r3, [r3]
 2368 0120 BA69     		ldr	r2, [r7, #24]
 2369 0122 D318     		add	r3, r2, r3
 2370 0124 3A1C     		mov	r2, r7
 2371 0126 1F32     		add	r2, r2, #31
 2372 0128 1178     		ldrb	r1, [r2]
 2373 012a 3A1C     		mov	r2, r7
 2374 012c 1E32     		add	r2, r2, #30
 2375 012e 1278     		ldrb	r2, [r2]
 2376 0130 8A1A     		sub	r2, r1, r2
 2377 0132 013A     		sub	r2, r2, #1
 2378 0134 B969     		ldr	r1, [r7, #24]
 2379 0136 8A18     		add	r2, r1, r2
 2380 0138 1278     		ldrb	r2, [r2]
 2381 013a 1A70     		strb	r2, [r3]
1075:../Generated_Code/UTIL1.c ****     ptr[(i-j)-1] = tmp;
 2382              		.loc 1 1075 0
 2383 013c 3B1C     		mov	r3, r7
 2384 013e 1F33     		add	r3, r3, #31
 2385 0140 1A78     		ldrb	r2, [r3]
 2386 0142 3B1C     		mov	r3, r7
 2387 0144 1E33     		add	r3, r3, #30
 2388 0146 1B78     		ldrb	r3, [r3]
 2389 0148 D31A     		sub	r3, r2, r3
 2390 014a 013B     		sub	r3, r3, #1
 2391 014c BA69     		ldr	r2, [r7, #24]
 2392 014e D318     		add	r3, r2, r3
 2393 0150 3A1C     		mov	r2, r7
 2394 0152 1632     		add	r2, r2, #22
 2395 0154 1278     		ldrb	r2, [r2]
 2396 0156 1A70     		strb	r2, [r3]
1072:../Generated_Code/UTIL1.c ****   for(j=0; j<(i/2); j++) { /* swap buffer */
 2397              		.loc 1 1072 0
 2398 0158 3B1C     		mov	r3, r7
 2399 015a 1E33     		add	r3, r3, #30
 2400 015c 3A1C     		mov	r2, r7
 2401 015e 1E32     		add	r2, r2, #30
 2402 0160 1278     		ldrb	r2, [r2]
 2403 0162 0132     		add	r2, r2, #1
 2404 0164 1A70     		strb	r2, [r3]
 2405              	.L87:
1072:../Generated_Code/UTIL1.c ****   for(j=0; j<(i/2); j++) { /* swap buffer */
 2406              		.loc 1 1072 0 is_stmt 0
 2407 0166 3B1C     		mov	r3, r7
 2408 0168 1F33     		add	r3, r3, #31
 2409 016a 1B78     		ldrb	r3, [r3]
 2410 016c 5B08     		lsr	r3, r3, #1
 2411 016e DBB2     		uxtb	r3, r3
 2412 0170 3A1C     		mov	r2, r7
 2413 0172 1E32     		add	r2, r2, #30
 2414 0174 1278     		ldrb	r2, [r2]
 2415 0176 9A42     		cmp	r2, r3
 2416 0178 C6D3     		bcc	.L88
1076:../Generated_Code/UTIL1.c ****   }
1077:../Generated_Code/UTIL1.c ****   ptr[i] = '\0';
 2417              		.loc 1 1077 0 is_stmt 1
 2418 017a 3B1C     		mov	r3, r7
 2419 017c 1F33     		add	r3, r3, #31
 2420 017e 1B78     		ldrb	r3, [r3]
 2421 0180 BA69     		ldr	r2, [r7, #24]
 2422 0182 D318     		add	r3, r2, r3
 2423 0184 0022     		mov	r2, #0
 2424 0186 1A70     		strb	r2, [r3]
 2425              	.L78:
1078:../Generated_Code/UTIL1.c **** }
 2426              		.loc 1 1078 0
 2427 0188 BD46     		mov	sp, r7
 2428 018a 09B0     		add	sp, sp, #36
 2429              		@ sp needed for prologue
 2430 018c 90BD     		pop	{r4, r7, pc}
 2431              	.L90:
 2432 018e C046     		.align	2
 2433              	.L89:
 2434 0190 08000000 		.word	.LC2
 2435              		.cfi_endproc
 2436              	.LFE26:
 2438              		.section	.text.UTIL1_Num32uToStr,"ax",%progbits
 2439              		.align	2
 2440              		.global	UTIL1_Num32uToStr
 2441              		.code	16
 2442              		.thumb_func
 2444              	UTIL1_Num32uToStr:
 2445              	.LFB27:
1079:../Generated_Code/UTIL1.c **** 
1080:../Generated_Code/UTIL1.c **** /*
1081:../Generated_Code/UTIL1.c **** ** ===================================================================
1082:../Generated_Code/UTIL1.c **** **     Method      :  UTIL1_Num32uToStr (component Utility)
1083:../Generated_Code/UTIL1.c **** **     Description :
1084:../Generated_Code/UTIL1.c **** **         Converts an unsigned 32bit value into a string.
1085:../Generated_Code/UTIL1.c **** **     Parameters  :
1086:../Generated_Code/UTIL1.c **** **         NAME            - DESCRIPTION
1087:../Generated_Code/UTIL1.c **** **       * dst             - Pointer to destination string
1088:../Generated_Code/UTIL1.c **** **         dstSize         - Size of the destination buffer (in
1089:../Generated_Code/UTIL1.c **** **                           bytes).
1090:../Generated_Code/UTIL1.c **** **         val             - Value to be converted.
1091:../Generated_Code/UTIL1.c **** **     Returns     : Nothing
1092:../Generated_Code/UTIL1.c **** ** ===================================================================
1093:../Generated_Code/UTIL1.c **** */
1094:../Generated_Code/UTIL1.c **** /*!
1095:../Generated_Code/UTIL1.c ****   \brief Converts a 32bit signed number to a string.
1096:../Generated_Code/UTIL1.c ****   \param[in,out] dst String buffer to store the number.
1097:../Generated_Code/UTIL1.c ****   \param[in] dstSize Size of the destination buffer in uint8_ts.
1098:../Generated_Code/UTIL1.c ****   \param[in] val 32bit unsigned number to convert.
1099:../Generated_Code/UTIL1.c ****  */
1100:../Generated_Code/UTIL1.c **** void UTIL1_Num32uToStr(uint8_t *dst, size_t dstSize, uint32_t val)
1101:../Generated_Code/UTIL1.c **** {
 2446              		.loc 1 1101 0
 2447              		.cfi_startproc
 2448 0000 90B5     		push	{r4, r7, lr}
 2449              	.LCFI81:
 2450              		.cfi_def_cfa_offset 12
 2451              		.cfi_offset 4, -12
 2452              		.cfi_offset 7, -8
 2453              		.cfi_offset 14, -4
 2454 0002 89B0     		sub	sp, sp, #36
 2455              	.LCFI82:
 2456              		.cfi_def_cfa_offset 48
 2457 0004 00AF     		add	r7, sp, #0
 2458              	.LCFI83:
 2459              		.cfi_def_cfa_register 7
 2460 0006 F860     		str	r0, [r7, #12]
 2461 0008 B960     		str	r1, [r7, #8]
 2462 000a 7A60     		str	r2, [r7, #4]
1102:../Generated_Code/UTIL1.c ****   unsigned char *ptr = ((unsigned char *)dst);
 2463              		.loc 1 1102 0
 2464 000c FB68     		ldr	r3, [r7, #12]
 2465 000e BB61     		str	r3, [r7, #24]
1103:../Generated_Code/UTIL1.c ****   unsigned char i=0, j;
 2466              		.loc 1 1103 0
 2467 0010 3B1C     		mov	r3, r7
 2468 0012 1F33     		add	r3, r3, #31
 2469 0014 0022     		mov	r2, #0
 2470 0016 1A70     		strb	r2, [r3]
1104:../Generated_Code/UTIL1.c ****   unsigned char tmp;
1105:../Generated_Code/UTIL1.c **** 
1106:../Generated_Code/UTIL1.c ****   dstSize--; /* for zero byte */
 2471              		.loc 1 1106 0
 2472 0018 BB68     		ldr	r3, [r7, #8]
 2473 001a 013B     		sub	r3, r3, #1
 2474 001c BB60     		str	r3, [r7, #8]
1107:../Generated_Code/UTIL1.c ****   if (val == 0 && dstSize > 0){
 2475              		.loc 1 1107 0
 2476 001e 7B68     		ldr	r3, [r7, #4]
 2477 0020 002B     		cmp	r3, #0
 2478 0022 34D1     		bne	.L93
 2479              		.loc 1 1107 0 is_stmt 0
 2480 0024 BB68     		ldr	r3, [r7, #8]
 2481 0026 002B     		cmp	r3, #0
 2482 0028 31D0     		beq	.L93
1108:../Generated_Code/UTIL1.c ****     ptr[i++] = '0';
 2483              		.loc 1 1108 0 is_stmt 1
 2484 002a 3B1C     		mov	r3, r7
 2485 002c 1F33     		add	r3, r3, #31
 2486 002e 1B78     		ldrb	r3, [r3]
 2487 0030 BA69     		ldr	r2, [r7, #24]
 2488 0032 D318     		add	r3, r2, r3
 2489 0034 3022     		mov	r2, #48
 2490 0036 1A70     		strb	r2, [r3]
 2491 0038 3B1C     		mov	r3, r7
 2492 003a 1F33     		add	r3, r3, #31
 2493 003c 3A1C     		mov	r2, r7
 2494 003e 1F32     		add	r2, r2, #31
 2495 0040 1278     		ldrb	r2, [r2]
 2496 0042 0132     		add	r2, r2, #1
 2497 0044 1A70     		strb	r2, [r3]
1109:../Generated_Code/UTIL1.c ****     dstSize--;
 2498              		.loc 1 1109 0
 2499 0046 BB68     		ldr	r3, [r7, #8]
 2500 0048 013B     		sub	r3, r3, #1
 2501 004a BB60     		str	r3, [r7, #8]
1110:../Generated_Code/UTIL1.c ****   }
1111:../Generated_Code/UTIL1.c ****   while (val > 0 && dstSize > 0) {
 2502              		.loc 1 1111 0
 2503 004c 1FE0     		b	.L93
 2504              	.L95:
1112:../Generated_Code/UTIL1.c ****     ptr[i++] = (unsigned char)((val % 10) + '0');
 2505              		.loc 1 1112 0
 2506 004e 3B1C     		mov	r3, r7
 2507 0050 1F33     		add	r3, r3, #31
 2508 0052 1B78     		ldrb	r3, [r3]
 2509 0054 BA69     		ldr	r2, [r7, #24]
 2510 0056 D418     		add	r4, r2, r3
 2511 0058 7B68     		ldr	r3, [r7, #4]
 2512 005a 181C     		mov	r0, r3
 2513 005c 0A21     		mov	r1, #10
 2514 005e FFF7FEFF 		bl	__aeabi_uidivmod
 2515 0062 0B1C     		mov	r3, r1
 2516 0064 DBB2     		uxtb	r3, r3
 2517 0066 3033     		add	r3, r3, #48
 2518 0068 DBB2     		uxtb	r3, r3
 2519 006a 2370     		strb	r3, [r4]
 2520 006c 3B1C     		mov	r3, r7
 2521 006e 1F33     		add	r3, r3, #31
 2522 0070 3A1C     		mov	r2, r7
 2523 0072 1F32     		add	r2, r2, #31
 2524 0074 1278     		ldrb	r2, [r2]
 2525 0076 0132     		add	r2, r2, #1
 2526 0078 1A70     		strb	r2, [r3]
1113:../Generated_Code/UTIL1.c ****     dstSize--;
 2527              		.loc 1 1113 0
 2528 007a BB68     		ldr	r3, [r7, #8]
 2529 007c 013B     		sub	r3, r3, #1
 2530 007e BB60     		str	r3, [r7, #8]
1114:../Generated_Code/UTIL1.c ****     val /= 10;
 2531              		.loc 1 1114 0
 2532 0080 7B68     		ldr	r3, [r7, #4]
 2533 0082 181C     		mov	r0, r3
 2534 0084 0A21     		mov	r1, #10
 2535 0086 FFF7FEFF 		bl	__aeabi_uidiv
 2536 008a 031C     		mov	r3, r0
 2537 008c 7B60     		str	r3, [r7, #4]
 2538              	.L93:
1111:../Generated_Code/UTIL1.c ****   while (val > 0 && dstSize > 0) {
 2539              		.loc 1 1111 0
 2540 008e 7B68     		ldr	r3, [r7, #4]
 2541 0090 002B     		cmp	r3, #0
 2542 0092 02D0     		beq	.L94
1111:../Generated_Code/UTIL1.c ****   while (val > 0 && dstSize > 0) {
 2543              		.loc 1 1111 0 is_stmt 0
 2544 0094 BB68     		ldr	r3, [r7, #8]
 2545 0096 002B     		cmp	r3, #0
 2546 0098 D9D1     		bne	.L95
 2547              	.L94:
1115:../Generated_Code/UTIL1.c ****   }
1116:../Generated_Code/UTIL1.c ****   for(j=0; j<(i/2); j++) { /* swap buffer */
 2548              		.loc 1 1116 0 is_stmt 1
 2549 009a 3B1C     		mov	r3, r7
 2550 009c 1E33     		add	r3, r3, #30
 2551 009e 0022     		mov	r2, #0
 2552 00a0 1A70     		strb	r2, [r3]
 2553 00a2 2EE0     		b	.L96
 2554              	.L97:
1117:../Generated_Code/UTIL1.c ****     tmp = ptr[j];
 2555              		.loc 1 1117 0
 2556 00a4 3B1C     		mov	r3, r7
 2557 00a6 1E33     		add	r3, r3, #30
 2558 00a8 1B78     		ldrb	r3, [r3]
 2559 00aa BA69     		ldr	r2, [r7, #24]
 2560 00ac D218     		add	r2, r2, r3
 2561 00ae 3B1C     		mov	r3, r7
 2562 00b0 1733     		add	r3, r3, #23
 2563 00b2 1278     		ldrb	r2, [r2]
 2564 00b4 1A70     		strb	r2, [r3]
1118:../Generated_Code/UTIL1.c ****     ptr[j] = ptr[(i-j)-1];
 2565              		.loc 1 1118 0
 2566 00b6 3B1C     		mov	r3, r7
 2567 00b8 1E33     		add	r3, r3, #30
 2568 00ba 1B78     		ldrb	r3, [r3]
 2569 00bc BA69     		ldr	r2, [r7, #24]
 2570 00be D318     		add	r3, r2, r3
 2571 00c0 3A1C     		mov	r2, r7
 2572 00c2 1F32     		add	r2, r2, #31
 2573 00c4 1178     		ldrb	r1, [r2]
 2574 00c6 3A1C     		mov	r2, r7
 2575 00c8 1E32     		add	r2, r2, #30
 2576 00ca 1278     		ldrb	r2, [r2]
 2577 00cc 8A1A     		sub	r2, r1, r2
 2578 00ce 013A     		sub	r2, r2, #1
 2579 00d0 B969     		ldr	r1, [r7, #24]
 2580 00d2 8A18     		add	r2, r1, r2
 2581 00d4 1278     		ldrb	r2, [r2]
 2582 00d6 1A70     		strb	r2, [r3]
1119:../Generated_Code/UTIL1.c ****     ptr[(i-j)-1] = tmp;
 2583              		.loc 1 1119 0
 2584 00d8 3B1C     		mov	r3, r7
 2585 00da 1F33     		add	r3, r3, #31
 2586 00dc 1A78     		ldrb	r2, [r3]
 2587 00de 3B1C     		mov	r3, r7
 2588 00e0 1E33     		add	r3, r3, #30
 2589 00e2 1B78     		ldrb	r3, [r3]
 2590 00e4 D31A     		sub	r3, r2, r3
 2591 00e6 013B     		sub	r3, r3, #1
 2592 00e8 BA69     		ldr	r2, [r7, #24]
 2593 00ea D318     		add	r3, r2, r3
 2594 00ec 3A1C     		mov	r2, r7
 2595 00ee 1732     		add	r2, r2, #23
 2596 00f0 1278     		ldrb	r2, [r2]
 2597 00f2 1A70     		strb	r2, [r3]
1116:../Generated_Code/UTIL1.c ****   for(j=0; j<(i/2); j++) { /* swap buffer */
 2598              		.loc 1 1116 0
 2599 00f4 3B1C     		mov	r3, r7
 2600 00f6 1E33     		add	r3, r3, #30
 2601 00f8 3A1C     		mov	r2, r7
 2602 00fa 1E32     		add	r2, r2, #30
 2603 00fc 1278     		ldrb	r2, [r2]
 2604 00fe 0132     		add	r2, r2, #1
 2605 0100 1A70     		strb	r2, [r3]
 2606              	.L96:
1116:../Generated_Code/UTIL1.c ****   for(j=0; j<(i/2); j++) { /* swap buffer */
 2607              		.loc 1 1116 0 is_stmt 0
 2608 0102 3B1C     		mov	r3, r7
 2609 0104 1F33     		add	r3, r3, #31
 2610 0106 1B78     		ldrb	r3, [r3]
 2611 0108 5B08     		lsr	r3, r3, #1
 2612 010a DBB2     		uxtb	r3, r3
 2613 010c 3A1C     		mov	r2, r7
 2614 010e 1E32     		add	r2, r2, #30
 2615 0110 1278     		ldrb	r2, [r2]
 2616 0112 9A42     		cmp	r2, r3
 2617 0114 C6D3     		bcc	.L97
1120:../Generated_Code/UTIL1.c ****   }
1121:../Generated_Code/UTIL1.c ****   ptr[i] = '\0';
 2618              		.loc 1 1121 0 is_stmt 1
 2619 0116 3B1C     		mov	r3, r7
 2620 0118 1F33     		add	r3, r3, #31
 2621 011a 1B78     		ldrb	r3, [r3]
 2622 011c BA69     		ldr	r2, [r7, #24]
 2623 011e D318     		add	r3, r2, r3
 2624 0120 0022     		mov	r2, #0
 2625 0122 1A70     		strb	r2, [r3]
1122:../Generated_Code/UTIL1.c **** }
 2626              		.loc 1 1122 0
 2627 0124 BD46     		mov	sp, r7
 2628 0126 09B0     		add	sp, sp, #36
 2629              		@ sp needed for prologue
 2630 0128 90BD     		pop	{r4, r7, pc}
 2631              		.cfi_endproc
 2632              	.LFE27:
 2634 012a C046     		.section	.text.UTIL1_IsLeapYear,"ax",%progbits
 2635              		.align	2
 2636              		.global	UTIL1_IsLeapYear
 2637              		.code	16
 2638              		.thumb_func
 2640              	UTIL1_IsLeapYear:
 2641              	.LFB28:
1123:../Generated_Code/UTIL1.c **** 
1124:../Generated_Code/UTIL1.c **** /*
1125:../Generated_Code/UTIL1.c **** ** ===================================================================
1126:../Generated_Code/UTIL1.c **** **     Method      :  UTIL1_IsLeapYear (component Utility)
1127:../Generated_Code/UTIL1.c **** **     Description :
1128:../Generated_Code/UTIL1.c **** **         Returns true if a given year is a leap year
1129:../Generated_Code/UTIL1.c **** **     Parameters  :
1130:../Generated_Code/UTIL1.c **** **         NAME            - DESCRIPTION
1131:../Generated_Code/UTIL1.c **** **         year            - Year, in the YYYY format.
1132:../Generated_Code/UTIL1.c **** **     Returns     :
1133:../Generated_Code/UTIL1.c **** **         ---             - If the year is a leap year or not.
1134:../Generated_Code/UTIL1.c **** ** ===================================================================
1135:../Generated_Code/UTIL1.c **** */
1136:../Generated_Code/UTIL1.c **** bool UTIL1_IsLeapYear(uint16_t year)
1137:../Generated_Code/UTIL1.c **** {
 2642              		.loc 1 1137 0
 2643              		.cfi_startproc
 2644 0000 80B5     		push	{r7, lr}
 2645              	.LCFI84:
 2646              		.cfi_def_cfa_offset 8
 2647              		.cfi_offset 7, -8
 2648              		.cfi_offset 14, -4
 2649 0002 82B0     		sub	sp, sp, #8
 2650              	.LCFI85:
 2651              		.cfi_def_cfa_offset 16
 2652 0004 00AF     		add	r7, sp, #0
 2653              	.LCFI86:
 2654              		.cfi_def_cfa_register 7
 2655 0006 021C     		mov	r2, r0
 2656 0008 BB1D     		add	r3, r7, #6
 2657 000a 1A80     		strh	r2, [r3]
1138:../Generated_Code/UTIL1.c ****   return ((((year%4)==0) && (year%100)!=0) || (year%400)==0);
 2658              		.loc 1 1138 0
 2659 000c BB1D     		add	r3, r7, #6
 2660 000e 1A88     		ldrh	r2, [r3]
 2661 0010 0323     		mov	r3, #3
 2662 0012 1340     		and	r3, r2
 2663 0014 9BB2     		uxth	r3, r3
 2664 0016 002B     		cmp	r3, #0
 2665 0018 09D1     		bne	.L99
 2666              		.loc 1 1138 0 is_stmt 0
 2667 001a BB1D     		add	r3, r7, #6
 2668 001c 1B88     		ldrh	r3, [r3]
 2669 001e 181C     		mov	r0, r3
 2670 0020 6421     		mov	r1, #100
 2671 0022 FFF7FEFF 		bl	__aeabi_uidivmod
 2672 0026 0B1C     		mov	r3, r1
 2673 0028 9BB2     		uxth	r3, r3
 2674 002a 002B     		cmp	r3, #0
 2675 002c 0AD1     		bne	.L100
 2676              	.L99:
 2677              		.loc 1 1138 0
 2678 002e BB1D     		add	r3, r7, #6
 2679 0030 1B88     		ldrh	r3, [r3]
 2680 0032 181C     		mov	r0, r3
 2681 0034 C823     		mov	r3, #200
 2682 0036 5900     		lsl	r1, r3, #1
 2683 0038 FFF7FEFF 		bl	__aeabi_uidivmod
 2684 003c 0B1C     		mov	r3, r1
 2685 003e 9BB2     		uxth	r3, r3
 2686 0040 002B     		cmp	r3, #0
 2687 0042 01D1     		bne	.L101
 2688              	.L100:
 2689              		.loc 1 1138 0
 2690 0044 0123     		mov	r3, #1
 2691 0046 00E0     		b	.L102
 2692              	.L101:
 2693              		.loc 1 1138 0
 2694 0048 0023     		mov	r3, #0
 2695              	.L102:
 2696              		.loc 1 1138 0
 2697 004a DBB2     		uxtb	r3, r3
1139:../Generated_Code/UTIL1.c **** }
 2698              		.loc 1 1139 0 is_stmt 1
 2699 004c 181C     		mov	r0, r3
 2700 004e BD46     		mov	sp, r7
 2701 0050 02B0     		add	sp, sp, #8
 2702              		@ sp needed for prologue
 2703 0052 80BD     		pop	{r7, pc}
 2704              		.cfi_endproc
 2705              	.LFE28:
 2707              		.section	.text.UTIL1_WeekDay,"ax",%progbits
 2708              		.align	2
 2709              		.global	UTIL1_WeekDay
 2710              		.code	16
 2711              		.thumb_func
 2713              	UTIL1_WeekDay:
 2714              	.LFB29:
1140:../Generated_Code/UTIL1.c **** 
1141:../Generated_Code/UTIL1.c **** /*
1142:../Generated_Code/UTIL1.c **** ** ===================================================================
1143:../Generated_Code/UTIL1.c **** **     Method      :  UTIL1_WeekDay (component Utility)
1144:../Generated_Code/UTIL1.c **** **     Description :
1145:../Generated_Code/UTIL1.c **** **         Returns the weekday for a given date >= 1.Jan.1900
1146:../Generated_Code/UTIL1.c **** **     Parameters  :
1147:../Generated_Code/UTIL1.c **** **         NAME            - DESCRIPTION
1148:../Generated_Code/UTIL1.c **** **         year            - year in YYYY format
1149:../Generated_Code/UTIL1.c **** **         month           - month of the year (1: January, 2:
1150:../Generated_Code/UTIL1.c **** **                           February, etc)
1151:../Generated_Code/UTIL1.c **** **         day             - day of the moth (starting with 1)
1152:../Generated_Code/UTIL1.c **** **     Returns     :
1153:../Generated_Code/UTIL1.c **** **         ---             - Returns the weekday, 0 for Sunday, 1 for
1154:../Generated_Code/UTIL1.c **** **                           Monday, 2 for Tuesday, etc.
1155:../Generated_Code/UTIL1.c **** ** ===================================================================
1156:../Generated_Code/UTIL1.c **** */
1157:../Generated_Code/UTIL1.c **** uint8_t UTIL1_WeekDay(uint16_t year, uint8_t month, uint8_t day)
1158:../Generated_Code/UTIL1.c **** {
 2715              		.loc 1 1158 0
 2716              		.cfi_startproc
 2717 0000 90B5     		push	{r4, r7, lr}
 2718              	.LCFI87:
 2719              		.cfi_def_cfa_offset 12
 2720              		.cfi_offset 4, -12
 2721              		.cfi_offset 7, -8
 2722              		.cfi_offset 14, -4
 2723 0002 85B0     		sub	sp, sp, #20
 2724              	.LCFI88:
 2725              		.cfi_def_cfa_offset 32
 2726 0004 00AF     		add	r7, sp, #0
 2727              	.LCFI89:
 2728              		.cfi_def_cfa_register 7
 2729 0006 BB1D     		add	r3, r7, #6
 2730 0008 1880     		strh	r0, [r3]
 2731 000a 7B1D     		add	r3, r7, #5
 2732 000c 1970     		strb	r1, [r3]
 2733 000e 3B1D     		add	r3, r7, #4
 2734 0010 1A70     		strb	r2, [r3]
1159:../Generated_Code/UTIL1.c ****   /* see http://klausler.com/new-dayofweek.html */
1160:../Generated_Code/UTIL1.c ****   static const uint8_t skew[12] = {0,3,3,6,1,4,6,2,5,0,3,5};
1161:../Generated_Code/UTIL1.c ****   uint16_t sum;
1162:../Generated_Code/UTIL1.c **** 
1163:../Generated_Code/UTIL1.c ****   sum = (uint16_t)(year-1900);
 2735              		.loc 1 1163 0
 2736 0012 3B1C     		mov	r3, r7
 2737 0014 0E33     		add	r3, r3, #14
 2738 0016 BA1D     		add	r2, r7, #6
 2739 0018 1288     		ldrh	r2, [r2]
 2740 001a 3349     		ldr	r1, .L108
 2741 001c 5218     		add	r2, r2, r1
 2742 001e 1A80     		strh	r2, [r3]
1164:../Generated_Code/UTIL1.c ****   sum += sum/4;
 2743              		.loc 1 1164 0
 2744 0020 3B1C     		mov	r3, r7
 2745 0022 0E33     		add	r3, r3, #14
 2746 0024 1B88     		ldrh	r3, [r3]
 2747 0026 9B08     		lsr	r3, r3, #2
 2748 0028 99B2     		uxth	r1, r3
 2749 002a 3B1C     		mov	r3, r7
 2750 002c 0E33     		add	r3, r3, #14
 2751 002e 3A1C     		mov	r2, r7
 2752 0030 0E32     		add	r2, r2, #14
 2753 0032 1288     		ldrh	r2, [r2]
 2754 0034 8A18     		add	r2, r1, r2
 2755 0036 1A80     		strh	r2, [r3]
1165:../Generated_Code/UTIL1.c ****   sum %= 7;
 2756              		.loc 1 1165 0
 2757 0038 3C1C     		mov	r4, r7
 2758 003a 0E34     		add	r4, r4, #14
 2759 003c 3B1C     		mov	r3, r7
 2760 003e 0E33     		add	r3, r3, #14
 2761 0040 1B88     		ldrh	r3, [r3]
 2762 0042 181C     		mov	r0, r3
 2763 0044 0721     		mov	r1, #7
 2764 0046 FFF7FEFF 		bl	__aeabi_uidivmod
 2765 004a 0B1C     		mov	r3, r1
 2766 004c 2380     		strh	r3, [r4]
1166:../Generated_Code/UTIL1.c ****   if (UTIL1_IsLeapYear(year) && (month==1 || month==2)) {
 2767              		.loc 1 1166 0
 2768 004e BB1D     		add	r3, r7, #6
 2769 0050 1B88     		ldrh	r3, [r3]
 2770 0052 181C     		mov	r0, r3
 2771 0054 FFF7FEFF 		bl	UTIL1_IsLeapYear
 2772 0058 031C     		mov	r3, r0
 2773 005a 002B     		cmp	r3, #0
 2774 005c 0ED0     		beq	.L105
 2775              		.loc 1 1166 0 is_stmt 0
 2776 005e 7B1D     		add	r3, r7, #5
 2777 0060 1B78     		ldrb	r3, [r3]
 2778 0062 012B     		cmp	r3, #1
 2779 0064 03D0     		beq	.L106
 2780 0066 7B1D     		add	r3, r7, #5
 2781 0068 1B78     		ldrb	r3, [r3]
 2782 006a 022B     		cmp	r3, #2
 2783 006c 06D1     		bne	.L105
 2784              	.L106:
1167:../Generated_Code/UTIL1.c ****     sum--;
 2785              		.loc 1 1167 0 is_stmt 1
 2786 006e 3B1C     		mov	r3, r7
 2787 0070 0E33     		add	r3, r3, #14
 2788 0072 3A1C     		mov	r2, r7
 2789 0074 0E32     		add	r2, r2, #14
 2790 0076 1288     		ldrh	r2, [r2]
 2791 0078 013A     		sub	r2, r2, #1
 2792 007a 1A80     		strh	r2, [r3]
 2793              	.L105:
1168:../Generated_Code/UTIL1.c ****   }
1169:../Generated_Code/UTIL1.c ****   sum += day;
 2794              		.loc 1 1169 0
 2795 007c 3B1D     		add	r3, r7, #4
 2796 007e 1B78     		ldrb	r3, [r3]
 2797 0080 99B2     		uxth	r1, r3
 2798 0082 3B1C     		mov	r3, r7
 2799 0084 0E33     		add	r3, r3, #14
 2800 0086 3A1C     		mov	r2, r7
 2801 0088 0E32     		add	r2, r2, #14
 2802 008a 1288     		ldrh	r2, [r2]
 2803 008c 8A18     		add	r2, r1, r2
 2804 008e 1A80     		strh	r2, [r3]
1170:../Generated_Code/UTIL1.c ****   sum %= 7;
 2805              		.loc 1 1170 0
 2806 0090 3C1C     		mov	r4, r7
 2807 0092 0E34     		add	r4, r4, #14
 2808 0094 3B1C     		mov	r3, r7
 2809 0096 0E33     		add	r3, r3, #14
 2810 0098 1B88     		ldrh	r3, [r3]
 2811 009a 181C     		mov	r0, r3
 2812 009c 0721     		mov	r1, #7
 2813 009e FFF7FEFF 		bl	__aeabi_uidivmod
 2814 00a2 0B1C     		mov	r3, r1
 2815 00a4 2380     		strh	r3, [r4]
1171:../Generated_Code/UTIL1.c ****   sum += skew[month-1];
 2816              		.loc 1 1171 0
 2817 00a6 7B1D     		add	r3, r7, #5
 2818 00a8 1B78     		ldrb	r3, [r3]
 2819 00aa 013B     		sub	r3, r3, #1
 2820 00ac 0F4A     		ldr	r2, .L108+4
 2821 00ae D35C     		ldrb	r3, [r2, r3]
 2822 00b0 191C     		mov	r1, r3
 2823 00b2 3B1C     		mov	r3, r7
 2824 00b4 0E33     		add	r3, r3, #14
 2825 00b6 3A1C     		mov	r2, r7
 2826 00b8 0E32     		add	r2, r2, #14
 2827 00ba 1288     		ldrh	r2, [r2]
 2828 00bc 8A18     		add	r2, r1, r2
 2829 00be 1A80     		strh	r2, [r3]
1172:../Generated_Code/UTIL1.c ****   sum %= 7;
 2830              		.loc 1 1172 0
 2831 00c0 3C1C     		mov	r4, r7
 2832 00c2 0E34     		add	r4, r4, #14
 2833 00c4 3B1C     		mov	r3, r7
 2834 00c6 0E33     		add	r3, r3, #14
 2835 00c8 1B88     		ldrh	r3, [r3]
 2836 00ca 181C     		mov	r0, r3
 2837 00cc 0721     		mov	r1, #7
 2838 00ce FFF7FEFF 		bl	__aeabi_uidivmod
 2839 00d2 0B1C     		mov	r3, r1
 2840 00d4 2380     		strh	r3, [r4]
1173:../Generated_Code/UTIL1.c ****   return (uint8_t)sum; /* 0: Sunday, 1: Monday, 2: Tuesday, 3: Wednesday, ... */
 2841              		.loc 1 1173 0
 2842 00d6 3B1C     		mov	r3, r7
 2843 00d8 0E33     		add	r3, r3, #14
 2844 00da 1B88     		ldrh	r3, [r3]
 2845 00dc DBB2     		uxtb	r3, r3
1174:../Generated_Code/UTIL1.c **** }
 2846              		.loc 1 1174 0
 2847 00de 181C     		mov	r0, r3
 2848 00e0 BD46     		mov	sp, r7
 2849 00e2 05B0     		add	sp, sp, #20
 2850              		@ sp needed for prologue
 2851 00e4 90BD     		pop	{r4, r7, pc}
 2852              	.L109:
 2853 00e6 C046     		.align	2
 2854              	.L108:
 2855 00e8 94F8FFFF 		.word	-1900
 2856 00ec 00000000 		.word	skew.6314
 2857              		.cfi_endproc
 2858              	.LFE29:
 2860              		.section	.rodata
 2861              		.align	2
 2862              	.LC5:
 2863 0014 00       		.ascii	"\000"
 2864              		.section	.text.UTIL1_ReadEscapedName,"ax",%progbits
 2865              		.align	2
 2866              		.global	UTIL1_ReadEscapedName
 2867              		.code	16
 2868              		.thumb_func
 2870              	UTIL1_ReadEscapedName:
 2871              	.LFB30:
1175:../Generated_Code/UTIL1.c **** 
1176:../Generated_Code/UTIL1.c **** /*
1177:../Generated_Code/UTIL1.c **** ** ===================================================================
1178:../Generated_Code/UTIL1.c **** **     Method      :  UTIL1_ReadEscapedName (component Utility)
1179:../Generated_Code/UTIL1.c **** **     Description :
1180:../Generated_Code/UTIL1.c **** **         Scans an escaped name from a string. This is useful e.g. for
1181:../Generated_Code/UTIL1.c **** **         double quoted file names.
1182:../Generated_Code/UTIL1.c **** **     Parameters  :
1183:../Generated_Code/UTIL1.c **** **         NAME            - DESCRIPTION
1184:../Generated_Code/UTIL1.c **** **       * filename        - the name to be copied. Names may
1185:../Generated_Code/UTIL1.c **** **                           be in quoted format
1186:../Generated_Code/UTIL1.c **** **       * destname        - the destination of the copy.
1187:../Generated_Code/UTIL1.c **** **                           Names are not in quoted format. destname
1188:../Generated_Code/UTIL1.c **** **                           may be NULL to get the other return values
1189:../Generated_Code/UTIL1.c **** **                           only
1190:../Generated_Code/UTIL1.c **** **         maxlen          - length allocated for destname
1191:../Generated_Code/UTIL1.c **** **       * lenRead         - length read in filename to copy
1192:../Generated_Code/UTIL1.c **** **                           the whole name. Note that filenames maybe
1193:../Generated_Code/UTIL1.c **** **                           space terminated, so *lenRead <
1194:../Generated_Code/UTIL1.c **** **                           strlen(filename)
1195:../Generated_Code/UTIL1.c **** **         lenWritten      - the size written in destname.
1196:../Generated_Code/UTIL1.c **** **                           In case of overflows in destname,
1197:../Generated_Code/UTIL1.c **** **                           lenWritten is still increased but destname
1198:../Generated_Code/UTIL1.c **** **                           no longer written. The have the string
1199:../Generated_Code/UTIL1.c **** **                           length in these cases use strlen(destname)
1200:../Generated_Code/UTIL1.c **** **         terminators     - additional characters
1201:../Generated_Code/UTIL1.c **** **                           where a name should terminate. May be NULL
1202:../Generated_Code/UTIL1.c **** **     Returns     :
1203:../Generated_Code/UTIL1.c **** **         ---             - Error code
1204:../Generated_Code/UTIL1.c **** ** ===================================================================
1205:../Generated_Code/UTIL1.c **** */
1206:../Generated_Code/UTIL1.c **** uint8_t UTIL1_ReadEscapedName(const unsigned char *filename, uint8_t *destname, size_t maxlen, size
1207:../Generated_Code/UTIL1.c **** {
 2872              		.loc 1 1207 0
 2873              		.cfi_startproc
 2874 0000 80B5     		push	{r7, lr}
 2875              	.LCFI90:
 2876              		.cfi_def_cfa_offset 8
 2877              		.cfi_offset 7, -8
 2878              		.cfi_offset 14, -4
 2879 0002 88B0     		sub	sp, sp, #32
 2880              	.LCFI91:
 2881              		.cfi_def_cfa_offset 40
 2882 0004 00AF     		add	r7, sp, #0
 2883              	.LCFI92:
 2884              		.cfi_def_cfa_register 7
 2885 0006 F860     		str	r0, [r7, #12]
 2886 0008 B960     		str	r1, [r7, #8]
 2887 000a 7A60     		str	r2, [r7, #4]
 2888 000c 3B60     		str	r3, [r7]
1208:../Generated_Code/UTIL1.c ****   size_t lenCopied = 0, lenOverread = 0;
 2889              		.loc 1 1208 0
 2890 000e 0023     		mov	r3, #0
 2891 0010 FB61     		str	r3, [r7, #28]
 2892 0012 0023     		mov	r3, #0
 2893 0014 BB61     		str	r3, [r7, #24]
1209:../Generated_Code/UTIL1.c ****   bool quoteMode = FALSE;  /* quoteMode means the name is surrounded by ". In this mode, only a sec
 2894              		.loc 1 1209 0
 2895 0016 3B1C     		mov	r3, r7
 2896 0018 1733     		add	r3, r3, #23
 2897 001a 0022     		mov	r2, #0
 2898 001c 1A70     		strb	r2, [r3]
1210:../Generated_Code/UTIL1.c ****                               terminates the string. In !quoteMode a space or a '\0' may also termi
1211:../Generated_Code/UTIL1.c ****   bool res = ERR_OK;
 2899              		.loc 1 1211 0
 2900 001e 3B1C     		mov	r3, r7
 2901 0020 1633     		add	r3, r3, #22
 2902 0022 0022     		mov	r2, #0
 2903 0024 1A70     		strb	r2, [r3]
1212:../Generated_Code/UTIL1.c ****   #define IS_SPACE(ch) ((ch)==' '||(ch)=='\t'||(ch)=='\n'||(ch)=='\v'||(ch)=='\f'||(ch)=='\r')
1213:../Generated_Code/UTIL1.c **** 
1214:../Generated_Code/UTIL1.c ****   if (filename==NULL || (destname!=NULL && maxlen==0)) {
 2904              		.loc 1 1214 0
 2905 0026 FB68     		ldr	r3, [r7, #12]
 2906 0028 002B     		cmp	r3, #0
 2907 002a 05D0     		beq	.L111
 2908              		.loc 1 1214 0 is_stmt 0
 2909 002c BB68     		ldr	r3, [r7, #8]
 2910 002e 002B     		cmp	r3, #0
 2911 0030 04D0     		beq	.L112
 2912 0032 7B68     		ldr	r3, [r7, #4]
 2913 0034 002B     		cmp	r3, #0
 2914 0036 01D1     		bne	.L112
 2915              	.L111:
1215:../Generated_Code/UTIL1.c ****     return ERR_FAILED;
 2916              		.loc 1 1215 0 is_stmt 1
 2917 0038 1B23     		mov	r3, #27
 2918 003a 89E0     		b	.L113
 2919              	.L112:
1216:../Generated_Code/UTIL1.c ****   }
1217:../Generated_Code/UTIL1.c ****   if (filename[0] == '"') { /* translated mode */
 2920              		.loc 1 1217 0
 2921 003c FB68     		ldr	r3, [r7, #12]
 2922 003e 1B78     		ldrb	r3, [r3]
 2923 0040 222B     		cmp	r3, #34
 2924 0042 09D1     		bne	.L114
1218:../Generated_Code/UTIL1.c ****     filename++; /* overread '"' */
 2925              		.loc 1 1218 0
 2926 0044 FB68     		ldr	r3, [r7, #12]
 2927 0046 0133     		add	r3, r3, #1
 2928 0048 FB60     		str	r3, [r7, #12]
1219:../Generated_Code/UTIL1.c ****     lenOverread++;
 2929              		.loc 1 1219 0
 2930 004a BB69     		ldr	r3, [r7, #24]
 2931 004c 0133     		add	r3, r3, #1
 2932 004e BB61     		str	r3, [r7, #24]
1220:../Generated_Code/UTIL1.c ****     quoteMode=TRUE;
 2933              		.loc 1 1220 0
 2934 0050 3B1C     		mov	r3, r7
 2935 0052 1733     		add	r3, r3, #23
 2936 0054 0122     		mov	r2, #1
 2937 0056 1A70     		strb	r2, [r3]
 2938              	.L114:
1221:../Generated_Code/UTIL1.c ****   }
1222:../Generated_Code/UTIL1.c ****   if (terminators == NULL) {
 2939              		.loc 1 1222 0
 2940 0058 FB6A     		ldr	r3, [r7, #44]
 2941 005a 002B     		cmp	r3, #0
 2942 005c 01D1     		bne	.L115
1223:../Generated_Code/UTIL1.c ****     terminators = "";
 2943              		.loc 1 1223 0
 2944 005e 3E4B     		ldr	r3, .L126
 2945 0060 FB62     		str	r3, [r7, #44]
 2946              	.L115:
1224:../Generated_Code/UTIL1.c ****   }
1225:../Generated_Code/UTIL1.c ****   for (;;) {
1226:../Generated_Code/UTIL1.c ****     if (quoteMode) {
 2947              		.loc 1 1226 0
 2948 0062 3B1C     		mov	r3, r7
 2949 0064 1733     		add	r3, r3, #23
 2950 0066 1B78     		ldrb	r3, [r3]
 2951 0068 002B     		cmp	r3, #0
 2952 006a 16D0     		beq	.L116
1227:../Generated_Code/UTIL1.c ****       if (filename[0] == '"') {
 2953              		.loc 1 1227 0
 2954 006c FB68     		ldr	r3, [r7, #12]
 2955 006e 1B78     		ldrb	r3, [r3]
 2956 0070 222B     		cmp	r3, #34
 2957 0072 09D1     		bne	.L117
1228:../Generated_Code/UTIL1.c ****         filename++; /* overread '"' */
 2958              		.loc 1 1228 0
 2959 0074 FB68     		ldr	r3, [r7, #12]
 2960 0076 0133     		add	r3, r3, #1
 2961 0078 FB60     		str	r3, [r7, #12]
1229:../Generated_Code/UTIL1.c ****         lenOverread++;
 2962              		.loc 1 1229 0
 2963 007a BB69     		ldr	r3, [r7, #24]
 2964 007c 0133     		add	r3, r3, #1
 2965 007e BB61     		str	r3, [r7, #24]
1230:../Generated_Code/UTIL1.c ****         if (filename[0] != '"') { /* quoteMode is terminated by a single quote. A double quote is t
 2966              		.loc 1 1230 0
 2967 0080 FB68     		ldr	r3, [r7, #12]
 2968 0082 1B78     		ldrb	r3, [r3]
 2969 0084 222B     		cmp	r3, #34
 2970 0086 4AD1     		bne	.L125
 2971              	.L117:
1231:../Generated_Code/UTIL1.c ****           break; /* successfully finished with this name */
1232:../Generated_Code/UTIL1.c ****         } /* else we copy the second quote " */
1233:../Generated_Code/UTIL1.c ****       }
1234:../Generated_Code/UTIL1.c ****       if (filename[0] == '\0') { /* unexpected 0. stop */
 2972              		.loc 1 1234 0
 2973 0088 FB68     		ldr	r3, [r7, #12]
 2974 008a 1B78     		ldrb	r3, [r3]
 2975 008c 002B     		cmp	r3, #0
 2976 008e 2AD1     		bne	.L119
1235:../Generated_Code/UTIL1.c ****         res = ERR_FAILED;
 2977              		.loc 1 1235 0
 2978 0090 3B1C     		mov	r3, r7
 2979 0092 1633     		add	r3, r3, #22
 2980 0094 1B22     		mov	r2, #27
 2981 0096 1A70     		strb	r2, [r3]
1236:../Generated_Code/UTIL1.c ****         break; /* error case: no terminating double quote (") was found */
 2982              		.loc 1 1236 0
 2983 0098 42E0     		b	.L118
 2984              	.L116:
1237:../Generated_Code/UTIL1.c ****       }
1238:../Generated_Code/UTIL1.c ****     } else { /* copy mode */
1239:../Generated_Code/UTIL1.c ****       if (IS_SPACE(filename[0]) || filename[0] == '\0' || strchr(terminators, filename[0]) != NULL)
 2985              		.loc 1 1239 0
 2986 009a FB68     		ldr	r3, [r7, #12]
 2987 009c 1B78     		ldrb	r3, [r3]
 2988 009e 202B     		cmp	r3, #32
 2989 00a0 3ED0     		beq	.L118
 2990              		.loc 1 1239 0 is_stmt 0
 2991 00a2 FB68     		ldr	r3, [r7, #12]
 2992 00a4 1B78     		ldrb	r3, [r3]
 2993 00a6 092B     		cmp	r3, #9
 2994 00a8 3AD0     		beq	.L118
 2995 00aa FB68     		ldr	r3, [r7, #12]
 2996 00ac 1B78     		ldrb	r3, [r3]
 2997 00ae 0A2B     		cmp	r3, #10
 2998 00b0 36D0     		beq	.L118
 2999              		.loc 1 1239 0
 3000 00b2 FB68     		ldr	r3, [r7, #12]
 3001 00b4 1B78     		ldrb	r3, [r3]
 3002 00b6 0B2B     		cmp	r3, #11
 3003 00b8 32D0     		beq	.L118
 3004              		.loc 1 1239 0
 3005 00ba FB68     		ldr	r3, [r7, #12]
 3006 00bc 1B78     		ldrb	r3, [r3]
 3007 00be 0C2B     		cmp	r3, #12
 3008 00c0 2ED0     		beq	.L118
 3009              		.loc 1 1239 0
 3010 00c2 FB68     		ldr	r3, [r7, #12]
 3011 00c4 1B78     		ldrb	r3, [r3]
 3012 00c6 0D2B     		cmp	r3, #13
 3013 00c8 2AD0     		beq	.L118
 3014              		.loc 1 1239 0
 3015 00ca FB68     		ldr	r3, [r7, #12]
 3016 00cc 1B78     		ldrb	r3, [r3]
 3017 00ce 002B     		cmp	r3, #0
 3018 00d0 26D0     		beq	.L118
 3019              		.loc 1 1239 0
 3020 00d2 FB68     		ldr	r3, [r7, #12]
 3021 00d4 1B78     		ldrb	r3, [r3]
 3022 00d6 FA6A     		ldr	r2, [r7, #44]
 3023 00d8 101C     		mov	r0, r2
 3024 00da 191C     		mov	r1, r3
 3025 00dc FFF7FEFF 		bl	strchr
 3026 00e0 031C     		mov	r3, r0
 3027 00e2 002B     		cmp	r3, #0
 3028 00e4 1CD1     		bne	.L118
 3029              	.L119:
1240:../Generated_Code/UTIL1.c ****         break;
1241:../Generated_Code/UTIL1.c ****       }
1242:../Generated_Code/UTIL1.c ****     }
1243:../Generated_Code/UTIL1.c ****     if (destname != NULL) {
 3030              		.loc 1 1243 0 is_stmt 1
 3031 00e6 BB68     		ldr	r3, [r7, #8]
 3032 00e8 002B     		cmp	r3, #0
 3033 00ea 11D0     		beq	.L120
1244:../Generated_Code/UTIL1.c ****       if (lenCopied + 1 < maxlen) {
 3034              		.loc 1 1244 0
 3035 00ec FB69     		ldr	r3, [r7, #28]
 3036 00ee 5A1C     		add	r2, r3, #1
 3037 00f0 7B68     		ldr	r3, [r7, #4]
 3038 00f2 9A42     		cmp	r2, r3
 3039 00f4 07D2     		bcs	.L121
1245:../Generated_Code/UTIL1.c ****         destname[0] = filename[0];
 3040              		.loc 1 1245 0
 3041 00f6 FB68     		ldr	r3, [r7, #12]
 3042 00f8 1A78     		ldrb	r2, [r3]
 3043 00fa BB68     		ldr	r3, [r7, #8]
 3044 00fc 1A70     		strb	r2, [r3]
1246:../Generated_Code/UTIL1.c ****         destname++;
 3045              		.loc 1 1246 0
 3046 00fe BB68     		ldr	r3, [r7, #8]
 3047 0100 0133     		add	r3, r3, #1
 3048 0102 BB60     		str	r3, [r7, #8]
 3049 0104 04E0     		b	.L120
 3050              	.L121:
1247:../Generated_Code/UTIL1.c ****       } else {
1248:../Generated_Code/UTIL1.c ****         destname[0] = '\0'; /* terminate string */
 3051              		.loc 1 1248 0
 3052 0106 BB68     		ldr	r3, [r7, #8]
 3053 0108 0022     		mov	r2, #0
 3054 010a 1A70     		strb	r2, [r3]
1249:../Generated_Code/UTIL1.c ****         destname = NULL; /* avoid it to overwrite not allocated space */
 3055              		.loc 1 1249 0
 3056 010c 0023     		mov	r3, #0
 3057 010e BB60     		str	r3, [r7, #8]
 3058              	.L120:
1250:../Generated_Code/UTIL1.c ****       }
1251:../Generated_Code/UTIL1.c ****     }
1252:../Generated_Code/UTIL1.c ****     lenCopied++;
 3059              		.loc 1 1252 0
 3060 0110 FB69     		ldr	r3, [r7, #28]
 3061 0112 0133     		add	r3, r3, #1
 3062 0114 FB61     		str	r3, [r7, #28]
1253:../Generated_Code/UTIL1.c ****     filename++;
 3063              		.loc 1 1253 0
 3064 0116 FB68     		ldr	r3, [r7, #12]
 3065 0118 0133     		add	r3, r3, #1
 3066 011a FB60     		str	r3, [r7, #12]
1254:../Generated_Code/UTIL1.c ****   }
 3067              		.loc 1 1254 0
 3068 011c A1E7     		b	.L115
 3069              	.L125:
1231:../Generated_Code/UTIL1.c ****           break; /* successfully finished with this name */
 3070              		.loc 1 1231 0
 3071 011e C046     		mov	r8, r8
 3072              	.L118:
1255:../Generated_Code/UTIL1.c ****   if (destname != NULL) {
 3073              		.loc 1 1255 0
 3074 0120 BB68     		ldr	r3, [r7, #8]
 3075 0122 002B     		cmp	r3, #0
 3076 0124 02D0     		beq	.L122
1256:../Generated_Code/UTIL1.c ****     destname[0] = '\0';
 3077              		.loc 1 1256 0
 3078 0126 BB68     		ldr	r3, [r7, #8]
 3079 0128 0022     		mov	r2, #0
 3080 012a 1A70     		strb	r2, [r3]
 3081              	.L122:
1257:../Generated_Code/UTIL1.c ****   }
1258:../Generated_Code/UTIL1.c ****   if (lenRead != NULL) {
 3082              		.loc 1 1258 0
 3083 012c 3B68     		ldr	r3, [r7]
 3084 012e 002B     		cmp	r3, #0
 3085 0130 04D0     		beq	.L123
1259:../Generated_Code/UTIL1.c ****     *lenRead = lenCopied+lenOverread;
 3086              		.loc 1 1259 0
 3087 0132 FA69     		ldr	r2, [r7, #28]
 3088 0134 BB69     		ldr	r3, [r7, #24]
 3089 0136 D218     		add	r2, r2, r3
 3090 0138 3B68     		ldr	r3, [r7]
 3091 013a 1A60     		str	r2, [r3]
 3092              	.L123:
1260:../Generated_Code/UTIL1.c ****   }
1261:../Generated_Code/UTIL1.c ****   if (lenWritten != NULL) {
 3093              		.loc 1 1261 0
 3094 013c BB6A     		ldr	r3, [r7, #40]
 3095 013e 002B     		cmp	r3, #0
 3096 0140 03D0     		beq	.L124
1262:../Generated_Code/UTIL1.c ****     *lenWritten = lenCopied + 1; /* additionally a zero byte written */
 3097              		.loc 1 1262 0
 3098 0142 FB69     		ldr	r3, [r7, #28]
 3099 0144 5A1C     		add	r2, r3, #1
 3100 0146 BB6A     		ldr	r3, [r7, #40]
 3101 0148 1A60     		str	r2, [r3]
 3102              	.L124:
1263:../Generated_Code/UTIL1.c ****   }
1264:../Generated_Code/UTIL1.c ****   return res;
 3103              		.loc 1 1264 0
 3104 014a 3B1C     		mov	r3, r7
 3105 014c 1633     		add	r3, r3, #22
 3106 014e 1B78     		ldrb	r3, [r3]
 3107              	.L113:
1265:../Generated_Code/UTIL1.c **** }
 3108              		.loc 1 1265 0
 3109 0150 181C     		mov	r0, r3
 3110 0152 BD46     		mov	sp, r7
 3111 0154 08B0     		add	sp, sp, #32
 3112              		@ sp needed for prologue
 3113 0156 80BD     		pop	{r7, pc}
 3114              	.L127:
 3115              		.align	2
 3116              	.L126:
 3117 0158 14000000 		.word	.LC5
 3118              		.cfi_endproc
 3119              	.LFE30:
 3121              		.section	.text.UTIL1_xatoi,"ax",%progbits
 3122              		.align	2
 3123              		.global	UTIL1_xatoi
 3124              		.code	16
 3125              		.thumb_func
 3127              	UTIL1_xatoi:
 3128              	.LFB31:
1266:../Generated_Code/UTIL1.c **** 
1267:../Generated_Code/UTIL1.c **** /*
1268:../Generated_Code/UTIL1.c **** ** ===================================================================
1269:../Generated_Code/UTIL1.c **** **     Method      :  UTIL1_xatoi (component Utility)
1270:../Generated_Code/UTIL1.c **** **     Description :
1271:../Generated_Code/UTIL1.c **** **         Custom atoi() (ascii to int) implementation by Elm Chan
1272:../Generated_Code/UTIL1.c **** **     Parameters  :
1273:../Generated_Code/UTIL1.c **** **         NAME            - DESCRIPTION
1274:../Generated_Code/UTIL1.c **** **       * str             - Pointer to string to scan. Returns until
1275:../Generated_Code/UTIL1.c **** **                           where it has scanned.
1276:../Generated_Code/UTIL1.c **** **       * res             - Pointer to where to store the result
1277:../Generated_Code/UTIL1.c **** **     Returns     :
1278:../Generated_Code/UTIL1.c **** **         ---             - Error code
1279:../Generated_Code/UTIL1.c **** ** ===================================================================
1280:../Generated_Code/UTIL1.c **** */
1281:../Generated_Code/UTIL1.c **** /*------------------------------------------------------------------------/
1282:../Generated_Code/UTIL1.c **** /  Universal string handler for user console interface
1283:../Generated_Code/UTIL1.c **** /-------------------------------------------------------------------------/
1284:../Generated_Code/UTIL1.c **** /
1285:../Generated_Code/UTIL1.c **** /  Copyright (C) 2010, ChaN, all right reserved.
1286:../Generated_Code/UTIL1.c **** /
1287:../Generated_Code/UTIL1.c **** / * This software is a free software and there is NO WARRANTY.
1288:../Generated_Code/UTIL1.c **** / * No restriction on use. You can use, modify and redistribute it for
1289:../Generated_Code/UTIL1.c **** /   personal, non-profit or commercial products UNDER YOUR RESPONSIBILITY.
1290:../Generated_Code/UTIL1.c **** / * Redistributions of source code must retain the above copyright notice.
1291:../Generated_Code/UTIL1.c **** /
1292:../Generated_Code/UTIL1.c **** /-------------------------------------------------------------------------*/
1293:../Generated_Code/UTIL1.c **** #ifdef __HC12__
1294:../Generated_Code/UTIL1.c ****   #pragma MESSAGE DISABLE C12056  /* message about SP debug info */
1295:../Generated_Code/UTIL1.c **** #endif
1296:../Generated_Code/UTIL1.c **** uint8_t UTIL1_xatoi(const unsigned char **str, int32_t *res)
1297:../Generated_Code/UTIL1.c **** {
 3129              		.loc 1 1297 0
 3130              		.cfi_startproc
 3131 0000 80B5     		push	{r7, lr}
 3132              	.LCFI93:
 3133              		.cfi_def_cfa_offset 8
 3134              		.cfi_offset 7, -8
 3135              		.cfi_offset 14, -4
 3136 0002 84B0     		sub	sp, sp, #16
 3137              	.LCFI94:
 3138              		.cfi_def_cfa_offset 24
 3139 0004 00AF     		add	r7, sp, #0
 3140              	.LCFI95:
 3141              		.cfi_def_cfa_register 7
 3142 0006 7860     		str	r0, [r7, #4]
 3143 0008 3960     		str	r1, [r7]
1298:../Generated_Code/UTIL1.c **** /* 123 -5   0x3ff 0b1111 0377 3.25  w "
1299:../Generated_Code/UTIL1.c ****       ^                               1st call returns 123 and next ptr
1300:../Generated_Code/UTIL1.c ****          ^                            2nd call returns -5 and next ptr
1301:../Generated_Code/UTIL1.c ****                  ^                    3rd call returns 1023 and next ptr
1302:../Generated_Code/UTIL1.c ****                         ^             4th call returns 15 and next ptr
1303:../Generated_Code/UTIL1.c ****                              ^        5th call returns 255 and next ptr
1304:../Generated_Code/UTIL1.c ****                                ^      6th call returns 3 and next ptr, caller needs to read '.'
1305:../Generated_Code/UTIL1.c ****                                  ^    7th call returns 25 and next ptr
1306:../Generated_Code/UTIL1.c ****                                     ^ 8th call fails and returns ERR_FAILED
1307:../Generated_Code/UTIL1.c **** */
1308:../Generated_Code/UTIL1.c ****   uint32_t val;
1309:../Generated_Code/UTIL1.c ****   uint8_t c, r, s = 0;
 3144              		.loc 1 1309 0
 3145 000a 3B1C     		mov	r3, r7
 3146 000c 0933     		add	r3, r3, #9
 3147 000e 0022     		mov	r2, #0
 3148 0010 1A70     		strb	r2, [r3]
1310:../Generated_Code/UTIL1.c **** 
1311:../Generated_Code/UTIL1.c ****   *res = 0;
 3149              		.loc 1 1311 0
 3150 0012 3B68     		ldr	r3, [r7]
 3151 0014 0022     		mov	r2, #0
 3152 0016 1A60     		str	r2, [r3]
1312:../Generated_Code/UTIL1.c ****   while (**str==' ') {
 3153              		.loc 1 1312 0
 3154 0018 04E0     		b	.L129
 3155              	.L130:
1313:../Generated_Code/UTIL1.c ****     (*str)++;                          /* Skip leading spaces */
 3156              		.loc 1 1313 0
 3157 001a 7B68     		ldr	r3, [r7, #4]
 3158 001c 1B68     		ldr	r3, [r3]
 3159 001e 5A1C     		add	r2, r3, #1
 3160 0020 7B68     		ldr	r3, [r7, #4]
 3161 0022 1A60     		str	r2, [r3]
 3162              	.L129:
1312:../Generated_Code/UTIL1.c ****   while (**str==' ') {
 3163              		.loc 1 1312 0
 3164 0024 7B68     		ldr	r3, [r7, #4]
 3165 0026 1B68     		ldr	r3, [r3]
 3166 0028 1B78     		ldrb	r3, [r3]
 3167 002a 202B     		cmp	r3, #32
 3168 002c F5D0     		beq	.L130
1314:../Generated_Code/UTIL1.c ****   }
1315:../Generated_Code/UTIL1.c ****   c = **str;
 3169              		.loc 1 1315 0
 3170 002e 7B68     		ldr	r3, [r7, #4]
 3171 0030 1A68     		ldr	r2, [r3]
 3172 0032 3B1C     		mov	r3, r7
 3173 0034 0B33     		add	r3, r3, #11
 3174 0036 1278     		ldrb	r2, [r2]
 3175 0038 1A70     		strb	r2, [r3]
1316:../Generated_Code/UTIL1.c ****   if (c == '-') {                      /* negative? */
 3176              		.loc 1 1316 0
 3177 003a 3B1C     		mov	r3, r7
 3178 003c 0B33     		add	r3, r3, #11
 3179 003e 1B78     		ldrb	r3, [r3]
 3180 0040 2D2B     		cmp	r3, #45
 3181 0042 0ED1     		bne	.L131
1317:../Generated_Code/UTIL1.c ****     s = 1;
 3182              		.loc 1 1317 0
 3183 0044 3B1C     		mov	r3, r7
 3184 0046 0933     		add	r3, r3, #9
 3185 0048 0122     		mov	r2, #1
 3186 004a 1A70     		strb	r2, [r3]
1318:../Generated_Code/UTIL1.c ****     c = *(++(*str));
 3187              		.loc 1 1318 0
 3188 004c 7B68     		ldr	r3, [r7, #4]
 3189 004e 1B68     		ldr	r3, [r3]
 3190 0050 5A1C     		add	r2, r3, #1
 3191 0052 7B68     		ldr	r3, [r7, #4]
 3192 0054 1A60     		str	r2, [r3]
 3193 0056 7B68     		ldr	r3, [r7, #4]
 3194 0058 1A68     		ldr	r2, [r3]
 3195 005a 3B1C     		mov	r3, r7
 3196 005c 0B33     		add	r3, r3, #11
 3197 005e 1278     		ldrb	r2, [r2]
 3198 0060 1A70     		strb	r2, [r3]
 3199              	.L131:
1319:../Generated_Code/UTIL1.c ****   }
1320:../Generated_Code/UTIL1.c ****   if (c == '0') {
 3200              		.loc 1 1320 0
 3201 0062 3B1C     		mov	r3, r7
 3202 0064 0B33     		add	r3, r3, #11
 3203 0066 1B78     		ldrb	r3, [r3]
 3204 0068 302B     		cmp	r3, #48
 3205 006a 4FD1     		bne	.L132
1321:../Generated_Code/UTIL1.c ****     c = *(++(*str));
 3206              		.loc 1 1321 0
 3207 006c 7B68     		ldr	r3, [r7, #4]
 3208 006e 1B68     		ldr	r3, [r3]
 3209 0070 5A1C     		add	r2, r3, #1
 3210 0072 7B68     		ldr	r3, [r7, #4]
 3211 0074 1A60     		str	r2, [r3]
 3212 0076 7B68     		ldr	r3, [r7, #4]
 3213 0078 1A68     		ldr	r2, [r3]
 3214 007a 3B1C     		mov	r3, r7
 3215 007c 0B33     		add	r3, r3, #11
 3216 007e 1278     		ldrb	r2, [r2]
 3217 0080 1A70     		strb	r2, [r3]
1322:../Generated_Code/UTIL1.c ****     switch (c) {
 3218              		.loc 1 1322 0
 3219 0082 3B1C     		mov	r3, r7
 3220 0084 0B33     		add	r3, r3, #11
 3221 0086 1B78     		ldrb	r3, [r3]
 3222 0088 622B     		cmp	r3, #98
 3223 008a 11D0     		beq	.L134
 3224 008c 782B     		cmp	r3, #120
 3225 008e 20D1     		bne	.L152
 3226              	.L135:
1323:../Generated_Code/UTIL1.c ****       case 'x':                        /* hexadecimal */
1324:../Generated_Code/UTIL1.c ****         r = 16; c = *(++(*str));
 3227              		.loc 1 1324 0
 3228 0090 3B1C     		mov	r3, r7
 3229 0092 0A33     		add	r3, r3, #10
 3230 0094 1022     		mov	r2, #16
 3231 0096 1A70     		strb	r2, [r3]
 3232 0098 7B68     		ldr	r3, [r7, #4]
 3233 009a 1B68     		ldr	r3, [r3]
 3234 009c 5A1C     		add	r2, r3, #1
 3235 009e 7B68     		ldr	r3, [r7, #4]
 3236 00a0 1A60     		str	r2, [r3]
 3237 00a2 7B68     		ldr	r3, [r7, #4]
 3238 00a4 1A68     		ldr	r2, [r3]
 3239 00a6 3B1C     		mov	r3, r7
 3240 00a8 0B33     		add	r3, r3, #11
 3241 00aa 1278     		ldrb	r2, [r2]
 3242 00ac 1A70     		strb	r2, [r3]
1325:../Generated_Code/UTIL1.c ****         break;
 3243              		.loc 1 1325 0
 3244 00ae 3DE0     		b	.L142
 3245              	.L134:
1326:../Generated_Code/UTIL1.c ****       case 'b':                        /* binary */
1327:../Generated_Code/UTIL1.c ****         r = 2; c = *(++(*str));
 3246              		.loc 1 1327 0
 3247 00b0 3B1C     		mov	r3, r7
 3248 00b2 0A33     		add	r3, r3, #10
 3249 00b4 0222     		mov	r2, #2
 3250 00b6 1A70     		strb	r2, [r3]
 3251 00b8 7B68     		ldr	r3, [r7, #4]
 3252 00ba 1B68     		ldr	r3, [r3]
 3253 00bc 5A1C     		add	r2, r3, #1
 3254 00be 7B68     		ldr	r3, [r7, #4]
 3255 00c0 1A60     		str	r2, [r3]
 3256 00c2 7B68     		ldr	r3, [r7, #4]
 3257 00c4 1A68     		ldr	r2, [r3]
 3258 00c6 3B1C     		mov	r3, r7
 3259 00c8 0B33     		add	r3, r3, #11
 3260 00ca 1278     		ldrb	r2, [r2]
 3261 00cc 1A70     		strb	r2, [r3]
1328:../Generated_Code/UTIL1.c ****         break;
 3262              		.loc 1 1328 0
 3263 00ce C046     		mov	r8, r8
 3264 00d0 2CE0     		b	.L142
 3265              	.L152:
1329:../Generated_Code/UTIL1.c ****       default:
1330:../Generated_Code/UTIL1.c ****         if (c <= ' ' || c == '.') {
 3266              		.loc 1 1330 0
 3267 00d2 3B1C     		mov	r3, r7
 3268 00d4 0B33     		add	r3, r3, #11
 3269 00d6 1B78     		ldrb	r3, [r3]
 3270 00d8 202B     		cmp	r3, #32
 3271 00da 04D9     		bls	.L137
 3272              		.loc 1 1330 0 is_stmt 0
 3273 00dc 3B1C     		mov	r3, r7
 3274 00de 0B33     		add	r3, r3, #11
 3275 00e0 1B78     		ldrb	r3, [r3]
 3276 00e2 2E2B     		cmp	r3, #46
 3277 00e4 01D1     		bne	.L138
 3278              	.L137:
1331:../Generated_Code/UTIL1.c ****           return ERR_OK;               /* single zero */
 3279              		.loc 1 1331 0 is_stmt 1
 3280 00e6 0023     		mov	r3, #0
 3281 00e8 7EE0     		b	.L139
 3282              	.L138:
1332:../Generated_Code/UTIL1.c ****         }
1333:../Generated_Code/UTIL1.c ****         if (c < '0' || c > '9') {
 3283              		.loc 1 1333 0
 3284 00ea 3B1C     		mov	r3, r7
 3285 00ec 0B33     		add	r3, r3, #11
 3286 00ee 1B78     		ldrb	r3, [r3]
 3287 00f0 2F2B     		cmp	r3, #47
 3288 00f2 04D9     		bls	.L140
 3289              		.loc 1 1333 0 is_stmt 0
 3290 00f4 3B1C     		mov	r3, r7
 3291 00f6 0B33     		add	r3, r3, #11
 3292 00f8 1B78     		ldrb	r3, [r3]
 3293 00fa 392B     		cmp	r3, #57
 3294 00fc 01D9     		bls	.L141
 3295              	.L140:
1334:../Generated_Code/UTIL1.c ****           return ERR_FAILED;           /* invalid char */
 3296              		.loc 1 1334 0 is_stmt 1
 3297 00fe 1B23     		mov	r3, #27
 3298 0100 72E0     		b	.L139
 3299              	.L141:
1335:../Generated_Code/UTIL1.c ****         }
1336:../Generated_Code/UTIL1.c ****         r = 8;                         /* octal */
 3300              		.loc 1 1336 0
 3301 0102 3B1C     		mov	r3, r7
 3302 0104 0A33     		add	r3, r3, #10
 3303 0106 0822     		mov	r2, #8
 3304 0108 1A70     		strb	r2, [r3]
1337:../Generated_Code/UTIL1.c ****         break;
 3305              		.loc 1 1337 0
 3306 010a 0FE0     		b	.L142
 3307              	.L132:
1338:../Generated_Code/UTIL1.c ****     } /* switch */
1339:../Generated_Code/UTIL1.c ****   } else {
1340:../Generated_Code/UTIL1.c ****     if (c < '0' || c > '9') {
 3308              		.loc 1 1340 0
 3309 010c 3B1C     		mov	r3, r7
 3310 010e 0B33     		add	r3, r3, #11
 3311 0110 1B78     		ldrb	r3, [r3]
 3312 0112 2F2B     		cmp	r3, #47
 3313 0114 04D9     		bls	.L143
 3314              		.loc 1 1340 0 is_stmt 0
 3315 0116 3B1C     		mov	r3, r7
 3316 0118 0B33     		add	r3, r3, #11
 3317 011a 1B78     		ldrb	r3, [r3]
 3318 011c 392B     		cmp	r3, #57
 3319 011e 01D9     		bls	.L144
 3320              	.L143:
1341:../Generated_Code/UTIL1.c ****       return ERR_FAILED;               /* EOL or invalid char */
 3321              		.loc 1 1341 0 is_stmt 1
 3322 0120 1B23     		mov	r3, #27
 3323 0122 61E0     		b	.L139
 3324              	.L144:
1342:../Generated_Code/UTIL1.c ****     }
1343:../Generated_Code/UTIL1.c ****     r = 10;                            /* decimal */
 3325              		.loc 1 1343 0
 3326 0124 3B1C     		mov	r3, r7
 3327 0126 0A33     		add	r3, r3, #10
 3328 0128 0A22     		mov	r2, #10
 3329 012a 1A70     		strb	r2, [r3]
 3330              	.L142:
1344:../Generated_Code/UTIL1.c ****   }
1345:../Generated_Code/UTIL1.c ****   val = 0;
 3331              		.loc 1 1345 0
 3332 012c 0023     		mov	r3, #0
 3333 012e FB60     		str	r3, [r7, #12]
1346:../Generated_Code/UTIL1.c ****   while (c > ' ' && c != '.') {
 3334              		.loc 1 1346 0
 3335 0130 44E0     		b	.L145
 3336              	.L150:
1347:../Generated_Code/UTIL1.c ****     if (c >= 'a') c -= 0x20;
 3337              		.loc 1 1347 0
 3338 0132 3B1C     		mov	r3, r7
 3339 0134 0B33     		add	r3, r3, #11
 3340 0136 1B78     		ldrb	r3, [r3]
 3341 0138 602B     		cmp	r3, #96
 3342 013a 06D9     		bls	.L146
 3343              		.loc 1 1347 0 is_stmt 0
 3344 013c 3B1C     		mov	r3, r7
 3345 013e 0B33     		add	r3, r3, #11
 3346 0140 3A1C     		mov	r2, r7
 3347 0142 0B32     		add	r2, r2, #11
 3348 0144 1278     		ldrb	r2, [r2]
 3349 0146 203A     		sub	r2, r2, #32
 3350 0148 1A70     		strb	r2, [r3]
 3351              	.L146:
1348:../Generated_Code/UTIL1.c ****     c -= '0';
 3352              		.loc 1 1348 0 is_stmt 1
 3353 014a 3B1C     		mov	r3, r7
 3354 014c 0B33     		add	r3, r3, #11
 3355 014e 3A1C     		mov	r2, r7
 3356 0150 0B32     		add	r2, r2, #11
 3357 0152 1278     		ldrb	r2, [r2]
 3358 0154 303A     		sub	r2, r2, #48
 3359 0156 1A70     		strb	r2, [r3]
1349:../Generated_Code/UTIL1.c ****     if (c >= 17) {
 3360              		.loc 1 1349 0
 3361 0158 3B1C     		mov	r3, r7
 3362 015a 0B33     		add	r3, r3, #11
 3363 015c 1B78     		ldrb	r3, [r3]
 3364 015e 102B     		cmp	r3, #16
 3365 0160 0DD9     		bls	.L147
1350:../Generated_Code/UTIL1.c ****       c -= 7;
 3366              		.loc 1 1350 0
 3367 0162 3B1C     		mov	r3, r7
 3368 0164 0B33     		add	r3, r3, #11
 3369 0166 3A1C     		mov	r2, r7
 3370 0168 0B32     		add	r2, r2, #11
 3371 016a 1278     		ldrb	r2, [r2]
 3372 016c 073A     		sub	r2, r2, #7
 3373 016e 1A70     		strb	r2, [r3]
1351:../Generated_Code/UTIL1.c ****       if (c <= 9) return ERR_FAILED;   /* invalid char */
 3374              		.loc 1 1351 0
 3375 0170 3B1C     		mov	r3, r7
 3376 0172 0B33     		add	r3, r3, #11
 3377 0174 1B78     		ldrb	r3, [r3]
 3378 0176 092B     		cmp	r3, #9
 3379 0178 01D8     		bhi	.L147
 3380              		.loc 1 1351 0 is_stmt 0
 3381 017a 1B23     		mov	r3, #27
 3382 017c 34E0     		b	.L139
 3383              	.L147:
1352:../Generated_Code/UTIL1.c ****     }
1353:../Generated_Code/UTIL1.c ****     if (c >= r) return ERR_FAILED;     /* invalid char for current radix */
 3384              		.loc 1 1353 0 is_stmt 1
 3385 017e 3A1C     		mov	r2, r7
 3386 0180 0B32     		add	r2, r2, #11
 3387 0182 3B1C     		mov	r3, r7
 3388 0184 0A33     		add	r3, r3, #10
 3389 0186 1278     		ldrb	r2, [r2]
 3390 0188 1B78     		ldrb	r3, [r3]
 3391 018a 9A42     		cmp	r2, r3
 3392 018c 01D3     		bcc	.L148
 3393              		.loc 1 1353 0 is_stmt 0
 3394 018e 1B23     		mov	r3, #27
 3395 0190 2AE0     		b	.L139
 3396              	.L148:
1354:../Generated_Code/UTIL1.c ****     val = val * r + c;
 3397              		.loc 1 1354 0 is_stmt 1
 3398 0192 3B1C     		mov	r3, r7
 3399 0194 0A33     		add	r3, r3, #10
 3400 0196 1B78     		ldrb	r3, [r3]
 3401 0198 FA68     		ldr	r2, [r7, #12]
 3402 019a 5A43     		mul	r2, r3
 3403 019c 3B1C     		mov	r3, r7
 3404 019e 0B33     		add	r3, r3, #11
 3405 01a0 1B78     		ldrb	r3, [r3]
 3406 01a2 D318     		add	r3, r2, r3
 3407 01a4 FB60     		str	r3, [r7, #12]
1355:../Generated_Code/UTIL1.c ****     c = *(++(*str));
 3408              		.loc 1 1355 0
 3409 01a6 7B68     		ldr	r3, [r7, #4]
 3410 01a8 1B68     		ldr	r3, [r3]
 3411 01aa 5A1C     		add	r2, r3, #1
 3412 01ac 7B68     		ldr	r3, [r7, #4]
 3413 01ae 1A60     		str	r2, [r3]
 3414 01b0 7B68     		ldr	r3, [r7, #4]
 3415 01b2 1A68     		ldr	r2, [r3]
 3416 01b4 3B1C     		mov	r3, r7
 3417 01b6 0B33     		add	r3, r3, #11
 3418 01b8 1278     		ldrb	r2, [r2]
 3419 01ba 1A70     		strb	r2, [r3]
 3420              	.L145:
1346:../Generated_Code/UTIL1.c ****   while (c > ' ' && c != '.') {
 3421              		.loc 1 1346 0
 3422 01bc 3B1C     		mov	r3, r7
 3423 01be 0B33     		add	r3, r3, #11
 3424 01c0 1B78     		ldrb	r3, [r3]
 3425 01c2 202B     		cmp	r3, #32
 3426 01c4 04D9     		bls	.L149
1346:../Generated_Code/UTIL1.c ****   while (c > ' ' && c != '.') {
 3427              		.loc 1 1346 0 is_stmt 0
 3428 01c6 3B1C     		mov	r3, r7
 3429 01c8 0B33     		add	r3, r3, #11
 3430 01ca 1B78     		ldrb	r3, [r3]
 3431 01cc 2E2B     		cmp	r3, #46
 3432 01ce B0D1     		bne	.L150
 3433              	.L149:
1356:../Generated_Code/UTIL1.c ****   } /* while */
1357:../Generated_Code/UTIL1.c ****   if (s) val = 0 - val;                /* apply sign if needed */
 3434              		.loc 1 1357 0 is_stmt 1
 3435 01d0 3B1C     		mov	r3, r7
 3436 01d2 0933     		add	r3, r3, #9
 3437 01d4 1B78     		ldrb	r3, [r3]
 3438 01d6 002B     		cmp	r3, #0
 3439 01d8 02D0     		beq	.L151
 3440              		.loc 1 1357 0 is_stmt 0
 3441 01da FB68     		ldr	r3, [r7, #12]
 3442 01dc 5B42     		neg	r3, r3
 3443 01de FB60     		str	r3, [r7, #12]
 3444              	.L151:
1358:../Generated_Code/UTIL1.c ****   *res = (long)val;
 3445              		.loc 1 1358 0 is_stmt 1
 3446 01e0 FA68     		ldr	r2, [r7, #12]
 3447 01e2 3B68     		ldr	r3, [r7]
 3448 01e4 1A60     		str	r2, [r3]
1359:../Generated_Code/UTIL1.c ****   return ERR_OK;
 3449              		.loc 1 1359 0
 3450 01e6 0023     		mov	r3, #0
 3451              	.L139:
1360:../Generated_Code/UTIL1.c **** }
 3452              		.loc 1 1360 0
 3453 01e8 181C     		mov	r0, r3
 3454 01ea BD46     		mov	sp, r7
 3455 01ec 04B0     		add	sp, sp, #16
 3456              		@ sp needed for prologue
 3457 01ee 80BD     		pop	{r7, pc}
 3458              		.cfi_endproc
 3459              	.LFE31:
 3461              		.section	.text.UTIL1_ScanDate,"ax",%progbits
 3462              		.align	2
 3463              		.global	UTIL1_ScanDate
 3464              		.code	16
 3465              		.thumb_func
 3467              	UTIL1_ScanDate:
 3468              	.LFB32:
1361:../Generated_Code/UTIL1.c **** #ifdef __HC12__
1362:../Generated_Code/UTIL1.c ****   #pragma MESSAGE DEFAULT C12056  /* message about SP debug info */
1363:../Generated_Code/UTIL1.c **** #endif
1364:../Generated_Code/UTIL1.c **** 
1365:../Generated_Code/UTIL1.c **** /*
1366:../Generated_Code/UTIL1.c **** ** ===================================================================
1367:../Generated_Code/UTIL1.c **** **     Method      :  UTIL1_ScanDate (component Utility)
1368:../Generated_Code/UTIL1.c **** **     Description :
1369:../Generated_Code/UTIL1.c **** **         Scans a date in the format "dd.mm.yyyy" or "dd-mm-yyyy". For
1370:../Generated_Code/UTIL1.c **** **         yy it will expand it to 20yy.
1371:../Generated_Code/UTIL1.c **** **     Parameters  :
1372:../Generated_Code/UTIL1.c **** **         NAME            - DESCRIPTION
1373:../Generated_Code/UTIL1.c **** **       * str             - Pointer to the string to be scanned. The
1374:../Generated_Code/UTIL1.c **** **                           function advances the pointer.
1375:../Generated_Code/UTIL1.c **** **       * day             - Pointer to where to store the day value
1376:../Generated_Code/UTIL1.c **** **       * month           - Pointer to where to store the month
1377:../Generated_Code/UTIL1.c **** **                           value
1378:../Generated_Code/UTIL1.c **** **       * year            - Pointer to where to store the year value
1379:../Generated_Code/UTIL1.c **** **     Returns     :
1380:../Generated_Code/UTIL1.c **** **         ---             - Error code
1381:../Generated_Code/UTIL1.c **** ** ===================================================================
1382:../Generated_Code/UTIL1.c **** */
1383:../Generated_Code/UTIL1.c **** uint8_t UTIL1_ScanDate(const unsigned char **str, uint8_t *day, uint8_t *month, uint16_t *year)
1384:../Generated_Code/UTIL1.c **** {
 3469              		.loc 1 1384 0
 3470              		.cfi_startproc
 3471 0000 80B5     		push	{r7, lr}
 3472              	.LCFI96:
 3473              		.cfi_def_cfa_offset 8
 3474              		.cfi_offset 7, -8
 3475              		.cfi_offset 14, -4
 3476 0002 86B0     		sub	sp, sp, #24
 3477              	.LCFI97:
 3478              		.cfi_def_cfa_offset 32
 3479 0004 00AF     		add	r7, sp, #0
 3480              	.LCFI98:
 3481              		.cfi_def_cfa_register 7
 3482 0006 F860     		str	r0, [r7, #12]
 3483 0008 B960     		str	r1, [r7, #8]
 3484 000a 7A60     		str	r2, [r7, #4]
 3485 000c 3B60     		str	r3, [r7]
1385:../Generated_Code/UTIL1.c ****   /* precondition: string points to starting of date, e.g. "01.01.10" or "12.5.2010", and date is i
1386:../Generated_Code/UTIL1.c ****   const unsigned char *p;
1387:../Generated_Code/UTIL1.c **** 
1388:../Generated_Code/UTIL1.c ****   p = *str;
 3486              		.loc 1 1388 0
 3487 000e FB68     		ldr	r3, [r7, #12]
 3488 0010 1B68     		ldr	r3, [r3]
 3489 0012 7B61     		str	r3, [r7, #20]
1389:../Generated_Code/UTIL1.c ****   while(*p==' ') {
 3490              		.loc 1 1389 0
 3491 0014 02E0     		b	.L154
 3492              	.L155:
1390:../Generated_Code/UTIL1.c ****     p++; /* skip leading spaces */
 3493              		.loc 1 1390 0
 3494 0016 7B69     		ldr	r3, [r7, #20]
 3495 0018 0133     		add	r3, r3, #1
 3496 001a 7B61     		str	r3, [r7, #20]
 3497              	.L154:
1389:../Generated_Code/UTIL1.c ****   while(*p==' ') {
 3498              		.loc 1 1389 0
 3499 001c 7B69     		ldr	r3, [r7, #20]
 3500 001e 1B78     		ldrb	r3, [r3]
 3501 0020 202B     		cmp	r3, #32
 3502 0022 F8D0     		beq	.L155
1391:../Generated_Code/UTIL1.c ****   }
1392:../Generated_Code/UTIL1.c ****   if (   UTIL1_ScanDecimal8uNumber(&p, day)==ERR_OK
 3503              		.loc 1 1392 0
 3504 0024 3A1C     		mov	r2, r7
 3505 0026 1432     		add	r2, r2, #20
 3506 0028 BB68     		ldr	r3, [r7, #8]
 3507 002a 101C     		mov	r0, r2
 3508 002c 191C     		mov	r1, r3
 3509 002e FFF7FEFF 		bl	UTIL1_ScanDecimal8uNumber
 3510 0032 031C     		mov	r3, r0
 3511 0034 002B     		cmp	r3, #0
 3512 0036 53D1     		bne	.L156
1393:../Generated_Code/UTIL1.c ****       && *day > 0 && *day <= 31
 3513              		.loc 1 1393 0
 3514 0038 BB68     		ldr	r3, [r7, #8]
 3515 003a 1B78     		ldrb	r3, [r3]
 3516 003c 002B     		cmp	r3, #0
 3517 003e 4FD0     		beq	.L156
 3518              		.loc 1 1393 0 is_stmt 0
 3519 0040 BB68     		ldr	r3, [r7, #8]
 3520 0042 1B78     		ldrb	r3, [r3]
 3521 0044 1F2B     		cmp	r3, #31
 3522 0046 4BD8     		bhi	.L156
1394:../Generated_Code/UTIL1.c ****       && (*p=='.' || *p=='-')
 3523              		.loc 1 1394 0 is_stmt 1
 3524 0048 7B69     		ldr	r3, [r7, #20]
 3525 004a 1B78     		ldrb	r3, [r3]
 3526 004c 2E2B     		cmp	r3, #46
 3527 004e 03D0     		beq	.L157
 3528              		.loc 1 1394 0 is_stmt 0
 3529 0050 7B69     		ldr	r3, [r7, #20]
 3530 0052 1B78     		ldrb	r3, [r3]
 3531 0054 2D2B     		cmp	r3, #45
 3532 0056 43D1     		bne	.L156
 3533              	.L157:
1395:../Generated_Code/UTIL1.c ****      )
1396:../Generated_Code/UTIL1.c ****   {
1397:../Generated_Code/UTIL1.c ****     p++;
 3534              		.loc 1 1397 0 is_stmt 1
 3535 0058 7B69     		ldr	r3, [r7, #20]
 3536 005a 0133     		add	r3, r3, #1
 3537 005c 7B61     		str	r3, [r7, #20]
1398:../Generated_Code/UTIL1.c ****     if (   UTIL1_ScanDecimal8uNumber(&p, month)==ERR_OK
 3538              		.loc 1 1398 0
 3539 005e 3A1C     		mov	r2, r7
 3540 0060 1432     		add	r2, r2, #20
 3541 0062 7B68     		ldr	r3, [r7, #4]
 3542 0064 101C     		mov	r0, r2
 3543 0066 191C     		mov	r1, r3
 3544 0068 FFF7FEFF 		bl	UTIL1_ScanDecimal8uNumber
 3545 006c 031C     		mov	r3, r0
 3546 006e 002B     		cmp	r3, #0
 3547 0070 36D1     		bne	.L156
1399:../Generated_Code/UTIL1.c ****         && *month > 0 && *month <= 12
 3548              		.loc 1 1399 0
 3549 0072 7B68     		ldr	r3, [r7, #4]
 3550 0074 1B78     		ldrb	r3, [r3]
 3551 0076 002B     		cmp	r3, #0
 3552 0078 32D0     		beq	.L156
 3553              		.loc 1 1399 0 is_stmt 0
 3554 007a 7B68     		ldr	r3, [r7, #4]
 3555 007c 1B78     		ldrb	r3, [r3]
 3556 007e 0C2B     		cmp	r3, #12
 3557 0080 2ED8     		bhi	.L156
1400:../Generated_Code/UTIL1.c ****         && (*p=='.' || *p=='-')
 3558              		.loc 1 1400 0 is_stmt 1
 3559 0082 7B69     		ldr	r3, [r7, #20]
 3560 0084 1B78     		ldrb	r3, [r3]
 3561 0086 2E2B     		cmp	r3, #46
 3562 0088 03D0     		beq	.L158
 3563              		.loc 1 1400 0 is_stmt 0
 3564 008a 7B69     		ldr	r3, [r7, #20]
 3565 008c 1B78     		ldrb	r3, [r3]
 3566 008e 2D2B     		cmp	r3, #45
 3567 0090 26D1     		bne	.L156
 3568              	.L158:
1401:../Generated_Code/UTIL1.c ****        )
1402:../Generated_Code/UTIL1.c ****     {
1403:../Generated_Code/UTIL1.c ****       p++;
 3569              		.loc 1 1403 0 is_stmt 1
 3570 0092 7B69     		ldr	r3, [r7, #20]
 3571 0094 0133     		add	r3, r3, #1
 3572 0096 7B61     		str	r3, [r7, #20]
1404:../Generated_Code/UTIL1.c ****       if (   UTIL1_ScanDecimal16uNumber(&p, year)==ERR_OK
 3573              		.loc 1 1404 0
 3574 0098 3A1C     		mov	r2, r7
 3575 009a 1432     		add	r2, r2, #20
 3576 009c 3B68     		ldr	r3, [r7]
 3577 009e 101C     		mov	r0, r2
 3578 00a0 191C     		mov	r1, r3
 3579 00a2 FFF7FEFF 		bl	UTIL1_ScanDecimal16uNumber
 3580 00a6 031C     		mov	r3, r0
 3581 00a8 002B     		cmp	r3, #0
 3582 00aa 19D1     		bne	.L156
1405:../Generated_Code/UTIL1.c ****           && *year > 0 && *year <= 3000 /* hopefully this is enough :-) */
 3583              		.loc 1 1405 0
 3584 00ac 3B68     		ldr	r3, [r7]
 3585 00ae 1B88     		ldrh	r3, [r3]
 3586 00b0 002B     		cmp	r3, #0
 3587 00b2 15D0     		beq	.L156
 3588              		.loc 1 1405 0 is_stmt 0
 3589 00b4 3B68     		ldr	r3, [r7]
 3590 00b6 1A88     		ldrh	r2, [r3]
 3591 00b8 104B     		ldr	r3, .L162
 3592 00ba 9A42     		cmp	r2, r3
 3593 00bc 10D8     		bhi	.L156
1406:../Generated_Code/UTIL1.c ****          )
1407:../Generated_Code/UTIL1.c ****       {
1408:../Generated_Code/UTIL1.c ****         if (*year < 100) {
 3594              		.loc 1 1408 0 is_stmt 1
 3595 00be 3B68     		ldr	r3, [r7]
 3596 00c0 1B88     		ldrh	r3, [r3]
 3597 00c2 632B     		cmp	r3, #99
 3598 00c4 07D8     		bhi	.L159
1409:../Generated_Code/UTIL1.c ****           *year += 2000; /* transform '10' into '2010' */
 3599              		.loc 1 1409 0
 3600 00c6 3B68     		ldr	r3, [r7]
 3601 00c8 1B88     		ldrh	r3, [r3]
 3602 00ca FA22     		mov	r2, #250
 3603 00cc D200     		lsl	r2, r2, #3
 3604 00ce 9B18     		add	r3, r3, r2
 3605 00d0 9AB2     		uxth	r2, r3
 3606 00d2 3B68     		ldr	r3, [r7]
 3607 00d4 1A80     		strh	r2, [r3]
 3608              	.L159:
1410:../Generated_Code/UTIL1.c ****         }
1411:../Generated_Code/UTIL1.c ****         *str = p; /* advance pointer for caller */
 3609              		.loc 1 1411 0
 3610 00d6 7A69     		ldr	r2, [r7, #20]
 3611 00d8 FB68     		ldr	r3, [r7, #12]
 3612 00da 1A60     		str	r2, [r3]
1412:../Generated_Code/UTIL1.c ****         return ERR_OK;
 3613              		.loc 1 1412 0
 3614 00dc 0023     		mov	r3, #0
 3615 00de 09E0     		b	.L161
 3616              	.L156:
1413:../Generated_Code/UTIL1.c ****       }
1414:../Generated_Code/UTIL1.c ****     }
1415:../Generated_Code/UTIL1.c ****   }
1416:../Generated_Code/UTIL1.c ****   *day = 0;
 3617              		.loc 1 1416 0
 3618 00e0 BB68     		ldr	r3, [r7, #8]
 3619 00e2 0022     		mov	r2, #0
 3620 00e4 1A70     		strb	r2, [r3]
1417:../Generated_Code/UTIL1.c ****   *month = 0;
 3621              		.loc 1 1417 0
 3622 00e6 7B68     		ldr	r3, [r7, #4]
 3623 00e8 0022     		mov	r2, #0
 3624 00ea 1A70     		strb	r2, [r3]
1418:../Generated_Code/UTIL1.c ****   *year = 0;
 3625              		.loc 1 1418 0
 3626 00ec 3B68     		ldr	r3, [r7]
 3627 00ee 0022     		mov	r2, #0
 3628 00f0 1A80     		strh	r2, [r3]
1419:../Generated_Code/UTIL1.c ****   return ERR_FAILED; /* wrong format */
 3629              		.loc 1 1419 0
 3630 00f2 1B23     		mov	r3, #27
 3631              	.L161:
1420:../Generated_Code/UTIL1.c **** }
 3632              		.loc 1 1420 0
 3633 00f4 181C     		mov	r0, r3
 3634 00f6 BD46     		mov	sp, r7
 3635 00f8 06B0     		add	sp, sp, #24
 3636              		@ sp needed for prologue
 3637 00fa 80BD     		pop	{r7, pc}
 3638              	.L163:
 3639              		.align	2
 3640              	.L162:
 3641 00fc B80B0000 		.word	3000
 3642              		.cfi_endproc
 3643              	.LFE32:
 3645              		.section	.text.UTIL1_ScanTime,"ax",%progbits
 3646              		.align	2
 3647              		.global	UTIL1_ScanTime
 3648              		.code	16
 3649              		.thumb_func
 3651              	UTIL1_ScanTime:
 3652              	.LFB33:
1421:../Generated_Code/UTIL1.c **** 
1422:../Generated_Code/UTIL1.c **** /*
1423:../Generated_Code/UTIL1.c **** ** ===================================================================
1424:../Generated_Code/UTIL1.c **** **     Method      :  UTIL1_ScanTime (component Utility)
1425:../Generated_Code/UTIL1.c **** **     Description :
1426:../Generated_Code/UTIL1.c **** **         Scans a time string in the format "hh:mm:ss,hh" with the
1427:../Generated_Code/UTIL1.c **** **         part for the ",hh" is optional.
1428:../Generated_Code/UTIL1.c **** **     Parameters  :
1429:../Generated_Code/UTIL1.c **** **         NAME            - DESCRIPTION
1430:../Generated_Code/UTIL1.c **** **         str             - Pointer to the string to be scanned. The
1431:../Generated_Code/UTIL1.c **** **                           function advances the pointer.
1432:../Generated_Code/UTIL1.c **** **       * hour            - Pointer to where to store the hour value
1433:../Generated_Code/UTIL1.c **** **       * minute          - Pointer to where to store the minute
1434:../Generated_Code/UTIL1.c **** **                           value
1435:../Generated_Code/UTIL1.c **** **       * second          - Pointer to where to store the second
1436:../Generated_Code/UTIL1.c **** **                           value
1437:../Generated_Code/UTIL1.c **** **       * hSecond         - Pointer to scans the hundreds of
1438:../Generated_Code/UTIL1.c **** **                           second part. If not present in string, zero
1439:../Generated_Code/UTIL1.c **** **                           is stored
1440:../Generated_Code/UTIL1.c **** **     Returns     :
1441:../Generated_Code/UTIL1.c **** **         ---             - Error code
1442:../Generated_Code/UTIL1.c **** ** ===================================================================
1443:../Generated_Code/UTIL1.c **** */
1444:../Generated_Code/UTIL1.c **** uint8_t UTIL1_ScanTime(const unsigned char **str, uint8_t *hour, uint8_t *minute, uint8_t *second, 
1445:../Generated_Code/UTIL1.c **** {
 3653              		.loc 1 1445 0
 3654              		.cfi_startproc
 3655 0000 80B5     		push	{r7, lr}
 3656              	.LCFI99:
 3657              		.cfi_def_cfa_offset 8
 3658              		.cfi_offset 7, -8
 3659              		.cfi_offset 14, -4
 3660 0002 86B0     		sub	sp, sp, #24
 3661              	.LCFI100:
 3662              		.cfi_def_cfa_offset 32
 3663 0004 00AF     		add	r7, sp, #0
 3664              	.LCFI101:
 3665              		.cfi_def_cfa_register 7
 3666 0006 F860     		str	r0, [r7, #12]
 3667 0008 B960     		str	r1, [r7, #8]
 3668 000a 7A60     		str	r2, [r7, #4]
 3669 000c 3B60     		str	r3, [r7]
1446:../Generated_Code/UTIL1.c ****   /* precondition: string points to starting of time string, e.g. "03:15:05" or "03:15:05,3" or "03
1447:../Generated_Code/UTIL1.c ****   const unsigned char *p;
1448:../Generated_Code/UTIL1.c ****   #define SCAN_IS_DIGIT(ch) ((ch)>='0'&&(ch)<='9')
1449:../Generated_Code/UTIL1.c **** 
1450:../Generated_Code/UTIL1.c ****   *hour = 0;
 3670              		.loc 1 1450 0
 3671 000e BB68     		ldr	r3, [r7, #8]
 3672 0010 0022     		mov	r2, #0
 3673 0012 1A70     		strb	r2, [r3]
1451:../Generated_Code/UTIL1.c ****   *minute = 0;
 3674              		.loc 1 1451 0
 3675 0014 7B68     		ldr	r3, [r7, #4]
 3676 0016 0022     		mov	r2, #0
 3677 0018 1A70     		strb	r2, [r3]
1452:../Generated_Code/UTIL1.c ****   *second = 0;
 3678              		.loc 1 1452 0
 3679 001a 3B68     		ldr	r3, [r7]
 3680 001c 0022     		mov	r2, #0
 3681 001e 1A70     		strb	r2, [r3]
1453:../Generated_Code/UTIL1.c ****   *hSecond = 0;
 3682              		.loc 1 1453 0
 3683 0020 3B6A     		ldr	r3, [r7, #32]
 3684 0022 0022     		mov	r2, #0
 3685 0024 1A70     		strb	r2, [r3]
1454:../Generated_Code/UTIL1.c ****   p = *str;
 3686              		.loc 1 1454 0
 3687 0026 FB68     		ldr	r3, [r7, #12]
 3688 0028 1B68     		ldr	r3, [r3]
 3689 002a 7B61     		str	r3, [r7, #20]
1455:../Generated_Code/UTIL1.c ****   while(*p==' ') {
 3690              		.loc 1 1455 0
 3691 002c 02E0     		b	.L165
 3692              	.L166:
1456:../Generated_Code/UTIL1.c ****     p++; /* skip leading spaces */
 3693              		.loc 1 1456 0
 3694 002e 7B69     		ldr	r3, [r7, #20]
 3695 0030 0133     		add	r3, r3, #1
 3696 0032 7B61     		str	r3, [r7, #20]
 3697              	.L165:
1455:../Generated_Code/UTIL1.c ****   while(*p==' ') {
 3698              		.loc 1 1455 0
 3699 0034 7B69     		ldr	r3, [r7, #20]
 3700 0036 1B78     		ldrb	r3, [r3]
 3701 0038 202B     		cmp	r3, #32
 3702 003a F8D0     		beq	.L166
1457:../Generated_Code/UTIL1.c ****   }
1458:../Generated_Code/UTIL1.c ****   if (   UTIL1_ScanDecimal8uNumber(&p, hour)==ERR_OK
 3703              		.loc 1 1458 0
 3704 003c 3A1C     		mov	r2, r7
 3705 003e 1432     		add	r2, r2, #20
 3706 0040 BB68     		ldr	r3, [r7, #8]
 3707 0042 101C     		mov	r0, r2
 3708 0044 191C     		mov	r1, r3
 3709 0046 FFF7FEFF 		bl	UTIL1_ScanDecimal8uNumber
 3710 004a 031C     		mov	r3, r0
 3711 004c 002B     		cmp	r3, #0
 3712 004e 00D0     		beq	.LCB3300
 3713 0050 85E0     		b	.L167	@long jump
 3714              	.LCB3300:
1459:../Generated_Code/UTIL1.c ****       && *hour <= 24
 3715              		.loc 1 1459 0
 3716 0052 BB68     		ldr	r3, [r7, #8]
 3717 0054 1B78     		ldrb	r3, [r3]
 3718 0056 182B     		cmp	r3, #24
 3719 0058 00D9     		bls	.LCB3304
 3720 005a 80E0     		b	.L167	@long jump
 3721              	.LCB3304:
1460:../Generated_Code/UTIL1.c ****       && *p==':'
 3722              		.loc 1 1460 0
 3723 005c 7B69     		ldr	r3, [r7, #20]
 3724 005e 1B78     		ldrb	r3, [r3]
 3725 0060 3A2B     		cmp	r3, #58
 3726 0062 00D0     		beq	.LCB3308
 3727 0064 7BE0     		b	.L167	@long jump
 3728              	.LCB3308:
1461:../Generated_Code/UTIL1.c ****      )
1462:../Generated_Code/UTIL1.c ****   {
1463:../Generated_Code/UTIL1.c ****     p++; /* skip ':' */
 3729              		.loc 1 1463 0
 3730 0066 7B69     		ldr	r3, [r7, #20]
 3731 0068 0133     		add	r3, r3, #1
 3732 006a 7B61     		str	r3, [r7, #20]
1464:../Generated_Code/UTIL1.c ****     if (   UTIL1_ScanDecimal8uNumber(&p, minute)==ERR_OK
 3733              		.loc 1 1464 0
 3734 006c 3A1C     		mov	r2, r7
 3735 006e 1432     		add	r2, r2, #20
 3736 0070 7B68     		ldr	r3, [r7, #4]
 3737 0072 101C     		mov	r0, r2
 3738 0074 191C     		mov	r1, r3
 3739 0076 FFF7FEFF 		bl	UTIL1_ScanDecimal8uNumber
 3740 007a 031C     		mov	r3, r0
 3741 007c 002B     		cmp	r3, #0
 3742 007e 00D0     		beq	.LCB3320
 3743 0080 6DE0     		b	.L167	@long jump
 3744              	.LCB3320:
1465:../Generated_Code/UTIL1.c ****         && *minute <= 60
 3745              		.loc 1 1465 0
 3746 0082 7B68     		ldr	r3, [r7, #4]
 3747 0084 1B78     		ldrb	r3, [r3]
 3748 0086 3C2B     		cmp	r3, #60
 3749 0088 00D9     		bls	.LCB3324
 3750 008a 68E0     		b	.L167	@long jump
 3751              	.LCB3324:
1466:../Generated_Code/UTIL1.c ****        )
1467:../Generated_Code/UTIL1.c ****     {
1468:../Generated_Code/UTIL1.c ****       if (*p==':') { /* there is more after the minute */
 3752              		.loc 1 1468 0
 3753 008c 7B69     		ldr	r3, [r7, #20]
 3754 008e 1B78     		ldrb	r3, [r3]
 3755 0090 3A2B     		cmp	r3, #58
 3756 0092 57D1     		bne	.L168
1469:../Generated_Code/UTIL1.c ****         p++; /* skip ':' */
 3757              		.loc 1 1469 0
 3758 0094 7B69     		ldr	r3, [r7, #20]
 3759 0096 0133     		add	r3, r3, #1
 3760 0098 7B61     		str	r3, [r7, #20]
1470:../Generated_Code/UTIL1.c ****         if (   UTIL1_ScanDecimal8uNumber(&p, second)==ERR_OK
 3761              		.loc 1 1470 0
 3762 009a 3A1C     		mov	r2, r7
 3763 009c 1432     		add	r2, r2, #20
 3764 009e 3B68     		ldr	r3, [r7]
 3765 00a0 101C     		mov	r0, r2
 3766 00a2 191C     		mov	r1, r3
 3767 00a4 FFF7FEFF 		bl	UTIL1_ScanDecimal8uNumber
 3768 00a8 031C     		mov	r3, r0
 3769 00aa 002B     		cmp	r3, #0
 3770 00ac 57D1     		bne	.L167
1471:../Generated_Code/UTIL1.c ****             && *second <= 60
 3771              		.loc 1 1471 0
 3772 00ae 3B68     		ldr	r3, [r7]
 3773 00b0 1B78     		ldrb	r3, [r3]
 3774 00b2 3C2B     		cmp	r3, #60
 3775 00b4 53D8     		bhi	.L167
1472:../Generated_Code/UTIL1.c ****            )
1473:../Generated_Code/UTIL1.c ****         {
1474:../Generated_Code/UTIL1.c ****           if (*p==',') { /* we do have either ",z" or ",hh" */
 3776              		.loc 1 1474 0
 3777 00b6 7B69     		ldr	r3, [r7, #20]
 3778 00b8 1B78     		ldrb	r3, [r3]
 3779 00ba 2C2B     		cmp	r3, #44
 3780 00bc 3DD1     		bne	.L169
1475:../Generated_Code/UTIL1.c ****             p++; /* skip ',' */
 3781              		.loc 1 1475 0
 3782 00be 7B69     		ldr	r3, [r7, #20]
 3783 00c0 0133     		add	r3, r3, #1
 3784 00c2 7B61     		str	r3, [r7, #20]
1476:../Generated_Code/UTIL1.c ****             if (SCAN_IS_DIGIT(*p)) {
 3785              		.loc 1 1476 0
 3786 00c4 7B69     		ldr	r3, [r7, #20]
 3787 00c6 1B78     		ldrb	r3, [r3]
 3788 00c8 2F2B     		cmp	r3, #47
 3789 00ca 34D9     		bls	.L170
 3790              		.loc 1 1476 0 is_stmt 0
 3791 00cc 7B69     		ldr	r3, [r7, #20]
 3792 00ce 1B78     		ldrb	r3, [r3]
 3793 00d0 392B     		cmp	r3, #57
 3794 00d2 30D8     		bhi	.L170
1477:../Generated_Code/UTIL1.c ****               if (SCAN_IS_DIGIT(*(p+1))) { /* ,hh format */
 3795              		.loc 1 1477 0 is_stmt 1
 3796 00d4 7B69     		ldr	r3, [r7, #20]
 3797 00d6 0133     		add	r3, r3, #1
 3798 00d8 1B78     		ldrb	r3, [r3]
 3799 00da 2F2B     		cmp	r3, #47
 3800 00dc 18D9     		bls	.L171
 3801              		.loc 1 1477 0 is_stmt 0
 3802 00de 7B69     		ldr	r3, [r7, #20]
 3803 00e0 0133     		add	r3, r3, #1
 3804 00e2 1B78     		ldrb	r3, [r3]
 3805 00e4 392B     		cmp	r3, #57
 3806 00e6 13D8     		bhi	.L171
1478:../Generated_Code/UTIL1.c ****                 *hSecond = (uint8_t)((*p-'0')*10 + *(p+1)-'0');
 3807              		.loc 1 1478 0 is_stmt 1
 3808 00e8 7B69     		ldr	r3, [r7, #20]
 3809 00ea 1B78     		ldrb	r3, [r3]
 3810 00ec 303B     		sub	r3, r3, #48
 3811 00ee DBB2     		uxtb	r3, r3
 3812 00f0 1A1C     		add	r2, r3, #0
 3813 00f2 9200     		lsl	r2, r2, #2
 3814 00f4 D318     		add	r3, r2, r3
 3815 00f6 5B00     		lsl	r3, r3, #1
 3816 00f8 DAB2     		uxtb	r2, r3
 3817 00fa 7B69     		ldr	r3, [r7, #20]
 3818 00fc 0133     		add	r3, r3, #1
 3819 00fe 1B78     		ldrb	r3, [r3]
 3820 0100 D318     		add	r3, r2, r3
 3821 0102 DBB2     		uxtb	r3, r3
 3822 0104 303B     		sub	r3, r3, #48
 3823 0106 DAB2     		uxtb	r2, r3
 3824 0108 3B6A     		ldr	r3, [r7, #32]
 3825 010a 1A70     		strb	r2, [r3]
1479:../Generated_Code/UTIL1.c ****                 return ERR_OK;
 3826              		.loc 1 1479 0
 3827 010c 0023     		mov	r3, #0
 3828 010e 27E0     		b	.L174
 3829              	.L171:
1480:../Generated_Code/UTIL1.c ****               } else { /* ,z format */
1481:../Generated_Code/UTIL1.c ****                 *hSecond = (uint8_t)((*p-'0')*10);
 3830              		.loc 1 1481 0
 3831 0110 7B69     		ldr	r3, [r7, #20]
 3832 0112 1B78     		ldrb	r3, [r3]
 3833 0114 303B     		sub	r3, r3, #48
 3834 0116 DBB2     		uxtb	r3, r3
 3835 0118 1A1C     		add	r2, r3, #0
 3836 011a 9200     		lsl	r2, r2, #2
 3837 011c D318     		add	r3, r2, r3
 3838 011e 5B00     		lsl	r3, r3, #1
